(dp0
(S'X'
p1
S'  OXX  OO'
p2
tp3
(dp4
(I0
I1
tp5
F0.04745841276978113
s(I1
I2
tp6
F0.760538250562361
s(I0
I0
tp7
F0.8104081135039856
s(I2
I0
tp8
F0.7990259618743858
ss(g1
S'X  XOXOO '
p9
tp10
(dp11
(I0
I1
tp12
F0.3837701002489996
s(I0
I2
tp13
F0.32379834911228145
s(I2
I2
tp14
F0.37335554664258686
ss(g1
S' OOXX   O'
p15
tp16
(dp17
(I1
I2
tp18
F0.27747072163543396
s(I2
I0
tp19
F0.6353600401042016
s(I0
I0
tp20
F0.37187930510185674
s(I2
I1
tp21
F0.5005016404705489
ss(g1
S'X  X  OO '
p22
tp23
(dp24
(I0
I1
tp25
F0.13461233471328127
s(I1
I2
tp26
F0.7107498440451062
s(I2
I2
tp27
F0.2703967652836613
s(I0
I2
tp28
F0.6456828007181226
s(I1
I1
tp29
F0.641198364347695
ss(g1
S'        O'
p30
tp31
(dp32
(I0
I1
tp33
F0.42802368178812766
s(I1
I2
tp34
F0.29407740986926645
s(I0
I0
tp35
F0.27924857306717776
s(I2
I1
tp36
F0.5285491906543957
s(I1
I1
tp37
F0.2158227805693197
s(I2
I0
tp38
F0.3156596886381746
s(I1
I0
tp39
F0.9072772466049147
s(I0
I2
tp40
F0.060246619885861885
ss(g1
S'X     O  '
p41
tp42
(dp43
(I0
I1
tp44
F0.5948986144825286
s(I1
I2
tp45
F0.5038074811119784
s(I2
I1
tp46
F0.9364775498377179
s(I1
I1
tp47
F0.9740286592085557
s(I2
I2
tp48
F0.5088559977382136
s(I1
I0
tp49
F0.038639459593633685
s(I0
I2
tp50
F0.18122118955345956
ss(g1
S'X OX  O  '
p51
tp52
(dp53
(I0
I1
tp54
F0.10439715645581482
s(I1
I2
tp55
F0.534532920476798
s(I1
I1
tp56
F0.8854414268613642
s(I2
I1
tp57
F0.674212002477372
s(I2
I2
tp58
F0.7853308543924561
ss(g1
S'  OX    O'
p59
tp60
(dp61
(I0
I1
tp62
F0.7138896194261207
s(I1
I2
tp63
F0.6649824911693953
s(I0
I0
tp64
F0.16128903916710335
s(I2
I1
tp65
F0.2253231485308308
s(I2
I0
tp66
F0.6365018455064575
s(I1
I1
tp67
F0.9603743796473779
ss(g1
S'OO X XO X'
p68
tp69
(dp70
(I0
I2
tp71
F0.5338579921294991
s(I2
I1
tp72
F0.2725121449038862
s(I1
I1
tp73
F0.9979816459142
ss(g1
S'X    OO X'
p74
tp75
(dp76
g44
F0.5912200825511055
sg49
F0.2327210267568437
sg50
F0.45447597348788793
sg46
F0.7079054099971245
sg47
F0.960335462103744
ss(g1
S'XO X   OO'
p77
tp78
(dp79
g34
F0.6891351965639295
sg38
F0.09316813996764817
sg40
F0.3130212169917348
sg37
F0.3575837025231188
ss(g1
S'O  X XO  '
p80
tp81
(dp82
(I0
I1
tp83
F0.9006917692908789
s(I2
I2
tp84
F0.9832338180789404
sg71
F0.4814318160250717
sg72
F0.28007508357941635
sg73
F0.385535034355752
ss(g1
S'X OXX O O'
p85
tp86
(dp87
g54
F0.3291077696486151
sg55
F0.2424535024510035
sg57
F0.4391705735393322
ss(g1
S'  OXO X O'
p88
tp89
(dp90
g62
F0.0591689902135083
sg63
F0.38675267637563515
sg64
F0.36143657352927194
sg65
F0.2691891353568121
ss(g1
S'  OX     '
p91
tp92
(dp93
(I0
I1
tp94
F0.45862732540165607
s(I1
I2
tp95
F0.1723350268102678
s(I0
I0
tp96
F0.24343286804986364
s(I2
I1
tp97
F0.9889991487827877
s(I2
I0
tp98
F0.501173002505685
s(I2
I2
tp99
F0.9059887502500293
s(I1
I1
tp100
F0.25478297432690644
ss(g1
S'   X   OO'
p101
tp102
(dp103
g33
F0.6487468532690057
sg34
F0.4114740204448374
sg35
F0.6728551425709137
sg37
F0.9352400557266835
sg38
F0.5754559148516658
sg40
F0.04367397929878436
ss(g1
S'   X  O  '
p104
tp105
(dp106
g83
F0.5419883006880954
s(I1
I2
tp107
F0.9149404966875033
s(I0
I0
tp108
F0.9814060691019515
sg72
F0.02649449946981519
sg73
F0.5325367318371325
sg84
F0.2639838097452759
sg71
F0.08705752814139955
ss(g1
S'         '
p109
tp110
(dp111
g44
F0.47445097816866877
sg45
F0.2706182637977411
s(I0
I0
tp112
F0.5948171821114285
sg46
F0.7206157375413813
sg47
F0.7119817313410073
s(I2
I0
tp113
F0.10497934322061009
sg48
F0.0876271483377602
sg49
F0.8458038780590098
sg50
F0.5402140462650572
ss(g1
S'X OX XOO '
p114
tp115
(dp116
(I0
I1
tp117
F0.47678014867213225
s(I1
I1
tp118
F0.7434352834040254
s(I2
I2
tp119
F0.7898497895140386
ss(g1
S'  OX OX  '
p120
tp121
(dp122
g94
F0.33677190097331877
sg96
F0.3376873991575754
sg100
F0.7950508046672982
sg97
F0.7261562412167254
sg99
F0.9792719395682372
ss.