(dp0
(S'X'
p1
S'  XOX OO '
p2
tp3
(dp4
(I0
I1
tp5
F0.391421977136027
s(I1
I2
tp6
F0.055647180951120756
s(I0
I0
tp7
F0.12891066799871564
s(I2
I2
tp8
F0.0932249790400459
ss(g1
S'XO X  O  '
p9
tp10
(dp11
(I1
I2
tp12
F0.5106302052934061
s(I2
I2
tp13
F0.9609873445892771
s(I0
I2
tp14
F0.5670437913508924
s(I2
I1
tp15
F0.7452244063463856
s(I1
I1
tp16
F0.5029595232117324
ss(g1
S'  OX   XO'
p17
tp18
(dp19
(I0
I1
tp20
F0.5692829479253585
s(I1
I2
tp21
F0.7907046744989141
s(I0
I0
tp22
F0.728493093046696
s(I1
I1
tp23
F0.8544188793636224
s(I2
I0
tp24
F0.9973043625717644
ss(g1
S'  O  X OX'
p25
tp26
(dp27
(I0
I1
tp28
F0.7716061615833658
s(I2
I0
tp29
F0.5053061742005547
s(I1
I0
tp30
F0.813087856586864
s(I0
I0
tp31
F0.24181687781938976
s(I1
I1
tp32
F0.3228697257979293
ss(g1
S'  O O   X'
p33
tp34
(dp35
(I0
I1
tp36
F0.965438632164877
s(I1
I2
tp37
F0.1667963756646178
s(I0
I0
tp38
F0.8266885036659407
s(I2
I1
tp39
F0.7592781471595322
s(I2
I0
tp40
F0.976674728838993
s(I1
I0
tp41
F0.07817649590646036
ss(g1
S'X   XOO  '
p42
tp43
(dp44
(I0
I1
tp45
F0.825707027566648
s(I1
I0
tp46
F0.33279774892534875
s(I0
I2
tp47
F0.4827849353571425
s(I2
I1
tp48
F0.33960270270017623
s(I2
I2
tp49
F0.37645867596380567
ss(g1
S'    O   X'
p50
tp51
(dp52
(I0
I1
tp53
F0.8556453805843975
s(I1
I2
tp54
F0.23661922465989704
s(I0
I0
tp55
F0.9617748930553616
s(I2
I1
tp56
F0.2560058785591973
s(I2
I0
tp57
F0.375627424503443
s(I1
I0
tp58
F0.20049741633171525
s(I0
I2
tp59
F0.23645032492567486
ss(g1
S'  O XO   '
p60
tp61
(dp62
(I0
I1
tp63
F0.18146460487519622
s(I0
I0
tp64
F0.4619268253581502
s(I2
I1
tp65
F0.2742092095365487
s(I2
I0
tp66
F0.18977273768098768
s(I2
I2
tp67
F0.5915003636687058
s(I1
I0
tp68
F0.5114958981081146
ss(g1
S'OOX   OX '
p69
tp70
(dp71
(I1
I2
tp72
F0.4466753066021343
s(I1
I0
tp73
F0.7217444054828851
s(I1
I1
tp74
F0.9200038193124978
s(I2
I2
tp75
F0.03591919373299679
ss(g1
S'  X XOOXO'
p76
tp77
(dp78
(I0
I1
tp79
F0.9655675659184233
s(I1
I0
tp80
F0.8144354108303911
s(I0
I0
tp81
F0.579122087297486
ss(g1
S' OOX XO  '
p82
tp83
(dp84
(I0
I0
tp85
F0.8720340278207039
s(I1
I1
tp86
F0.9265541439249096
s(I2
I1
tp87
F0.8201084737755249
s(I2
I2
tp88
F0.7194709530915713
ss(g1
S'X OOXXOO '
p89
tp90
(dp91
(I0
I1
tp92
F0.48683285795741715
s(I2
I2
tp93
F0.13967785163115054
ss(g1
S'XO OXO XO'
p94
tp95
(dp96
(I2
I0
tp97
F0.9294038764934149
s(I0
I2
tp98
F0.9684226474639004
ss(g1
S'     O  X'
p99
tp100
(dp101
(I0
I1
tp102
F0.09217064226173632
s(I0
I0
tp103
F0.18539224566433687
s(I2
I1
tp104
F0.1298206434842133
s(I1
I1
tp105
F0.8851738022298098
s(I2
I0
tp106
F0.08039118804503387
s(I1
I0
tp107
F0.39786117023130985
s(I0
I2
tp108
F0.35468170247062114
ss(g1
S' OOO  X X'
p109
tp110
(dp111
(I1
I2
tp112
F0.6865227370736565
s(I0
I0
tp113
F0.818091054852791
s(I1
I1
tp114
F0.08487431136142887
s(I2
I1
tp115
F0.2434271731669373
ss(g1
S'OO OXXX  '
p116
tp117
(dp118
(I0
I2
tp119
F0.575972299042297
s(I2
I1
tp120
F0.765668775860484
s(I2
I2
tp121
F0.09715778692008048
ss(g1
S'OO XX X O'
p122
tp123
(dp124
(I1
I2
tp125
F0.9345154472115602
s(I0
I2
tp126
F0.30421969435732665
s(I2
I1
tp127
F0.8203804930555889
ss(g1
S'  O     X'
p128
tp129
(dp130
(I0
I1
tp131
F0.817668811840801
s(I1
I2
tp132
F0.9504302125890877
s(I0
I0
tp133
F0.14458038385705785
s(I2
I1
tp134
F0.8956108117898729
s(I2
I0
tp135
F0.2698432581096648
s(I1
I0
tp136
F0.3413939695025965
s(I1
I1
tp137
F0.3848680520151426
ss(g1
S'XXOO  XOO'
p138
tp139
(dp140
(I1
I2
tp141
F0.3851258539310216
s(I1
I1
tp142
F0.8624418762131807
ss(g1
S'  O    XO'
p143
tp144
(dp145
(I0
I1
tp146
F0.1377608384808363
s(I1
I2
tp147
F0.18750101626450444
s(I0
I0
tp148
F0.232591901253281
s(I2
I0
tp149
F0.009560166835953288
s(I1
I0
tp150
F0.9715284741158462
s(I1
I1
tp151
F0.3943769763751733
ss(g1
S'XXOX OOOX'
p152
tp153
(dp154
(I1
I1
tp155
F0.9747267539845047
ss(g1
S' O O  XX '
p156
tp157
(dp158
(I1
I2
tp159
F0.7512286177956645
s(I2
I2
tp160
F0.11857637564303847
s(I0
I0
tp161
F0.22333893053825127
s(I0
I2
tp162
F0.000316003530243969
s(I1
I1
tp163
F0.6655341949338349
ss(g1
S'OXOO XX  '
p164
tp165
(dp166
(I1
I1
tp167
F0.9478906595699427
s(I2
I1
tp168
F0.6700814891853805
s(I2
I2
tp169
F0.4267316814373635
ss(g1
S'OXXX OOOX'
p170
tp171
(dp172
g105
F0.8463889697598225
ss(g1
S'OO XX  XO'
p173
tp174
(dp175
(I1
I2
tp176
F0.5965447830894858
s(I2
I0
tp177
F0.2735233024912229
s(I0
I2
tp178
F0.8190240795086261
ss(g1
S' OX    XO'
p179
tp180
(dp181
(I1
I2
tp182
F0.6379086841289173
s(I2
I0
tp183
F0.34705472810116456
s(I1
I0
tp184
F0.21599670473541877
s(I0
I0
tp185
F0.2522321897490635
s(I1
I1
tp186
F0.40020335238850957
ss(g1
S'O OX   X '
p187
tp188
(dp189
(I0
I1
tp190
F0.5278744201527247
s(I1
I2
tp191
F0.730026425383922
s(I2
I2
tp192
F0.8138381520446468
s(I1
I1
tp193
F0.6352601701504436
s(I2
I0
tp194
F0.7177929441151065
ss(g1
S'XOOX XOOX'
p195
tp196
(dp197
(I1
I1
tp198
F0.9604686595236662
ss(g1
S'OO X X  O'
p199
tp200
(dp201
(I2
I0
tp202
F0.011820685540856468
s(I0
I2
tp203
F0.02299590363537063
s(I2
I1
tp204
F0.3847461007659563
s(I1
I1
tp205
F0.9986285206144677
ss(g1
S'X  O  O  '
p206
tp207
(dp208
(I0
I1
tp209
F0.77585329370256
s(I1
I2
tp210
F0.1975855176028687
s(I2
I1
tp211
F0.35579483850939675
s(I1
I1
tp212
F0.989134015369607
s(I2
I2
tp213
F0.5875686346899808
s(I0
I2
tp214
F0.726179127512801
ss(g1
S'   XO OX '
p215
tp216
(dp217
(I0
I1
tp218
F0.459744321227078
s(I1
I2
tp219
F0.19289691961604838
s(I0
I0
tp220
F0.7990496340479197
s(I0
I2
tp221
F0.9975097813424901
s(I2
I2
tp222
F0.4383705624079224
ss(g1
S'X   OXOOX'
p223
tp224
(dp225
(I0
I1
tp226
F0.06304656816582666
s(I1
I0
tp227
F0.35974684183205186
s(I0
I2
tp228
F0.8434311346988194
ss(g1
S'XOOOXXOX '
p229
tp230
(dp231
(I2
I2
tp232
F0.9049804536041376
ss(g1
S'O   OX X '
p233
tp234
(dp235
(I0
I1
tp236
F0.07093661980307275
s(I2
I0
tp237
F0.31164757817917144
s(I1
I0
tp238
F0.35298372143759504
s(I0
I2
tp239
F0.9742344277575585
s(I2
I2
tp240
F0.31979534776010965
ss(g1
S'O OOXOX X'
p241
tp242
(dp243
(I0
I1
tp244
F0.7195243853661204
s(I2
I1
tp245
F0.9406445359955025
ss(g1
S' OO X X O'
p246
tp247
(dp248
(I1
I2
tp249
F0.23672196208398544
s(I1
I0
tp250
F0.014442990038167514
s(I0
I0
tp251
F0.5877102120738418
s(I2
I1
tp252
F0.8401347774074654
ss(g1
S'X   O  O '
p253
tp254
(dp255
(I0
I1
tp256
F0.48068237743971953
s(I1
I2
tp257
F0.8929039330568992
s(I2
I0
tp258
F0.374772417154007
s(I2
I2
tp259
F0.9050707026905199
s(I1
I0
tp260
F0.7235786971107387
s(I0
I2
tp261
F0.16917035768900612
ss(g1
S'   XO    '
p262
tp263
(dp264
(I0
I1
tp265
F0.7812824216703469
s(I1
I2
tp266
F0.1905450364239668
s(I0
I0
tp267
F0.8890329757358804
s(I2
I1
tp268
F0.11505917936263133
s(I2
I0
tp269
F0.5908643861158552
s(I2
I2
tp270
F0.24826806477604968
s(I0
I2
tp271
F0.7922648795613069
ss(g1
S'XXO  OO X'
p272
tp273
(dp274
(I1
I0
tp275
F0.14225228490028752
s(I1
I1
tp276
F0.5838601532802076
s(I2
I1
tp277
F0.13942231098987934
ss(g1
S' O    XXO'
p278
tp279
(dp280
(I1
I2
tp281
F0.6016041726690743
s(I1
I0
tp282
F0.6623622724381668
s(I0
I0
tp283
F0.8777506311162603
s(I0
I2
tp284
F0.4134158827755614
s(I1
I1
tp285
F0.7102452675452592
ss(g1
S'X  OX  OO'
p286
tp287
(dp288
(I0
I1
tp289
F0.693549893584686
s(I1
I2
tp290
F0.9849279280883659
s(I0
I2
tp291
F0.15565235234666097
s(I2
I0
tp292
F0.5151366467982076
ss(g1
S'  X OX  O'
p293
tp294
(dp295
(I0
I1
tp296
F0.063215787877273
s(I2
I0
tp297
F0.17476106927585
s(I1
I0
tp298
F0.9777753003927877
s(I0
I0
tp299
F0.2541855634953216
s(I2
I1
tp300
F0.2308063144403646
ss(g1
S'  OOX    '
p301
tp302
(dp303
(I0
I1
tp304
F0.9497569876691205
s(I1
I2
tp305
F0.21670388179941158
s(I0
I0
tp306
F0.6171342799850966
s(I2
I1
tp307
F0.8206626436015646
s(I2
I0
tp308
F0.6782307443260723
s(I2
I2
tp309
F0.3452145264803864
ss(g1
S'XOOOX XO '
p310
tp311
(dp312
(I1
I2
tp313
F0.8621431674889525
s(I2
I2
tp314
F0.5116021333760409
ss(g1
S'  OO   XX'
p315
tp316
(dp317
(I0
I1
tp318
F0.12798401471590315
s(I1
I2
tp319
F0.007692227431363108
s(I0
I0
tp320
F0.2110667900712061
s(I1
I1
tp321
F0.31843323992796935
s(I2
I0
tp322
F0.26574915914060093
ss(S'X'
p323
S'        O'
p324
tp325
(dp326
(I0
I1
tp327
F0.42802368178812766
s(I1
I2
tp328
F0.29407740986926645
s(I0
I0
tp329
F0.27924857306717776
s(I2
I1
tp330
F0.5285491906543957
s(I0
I2
tp331
F0.060246619885861885
s(I2
I0
tp332
F0.3156596886381746
s(I1
I0
tp333
F0.9072772466049147
s(I1
I1
tp334
F0.2158227805693197
ss(g1
S'X O OOX X'
p335
tp336
(dp337
(I0
I1
tp338
F0.03251745398448669
s(I1
I0
tp339
F0.6249806129615426
s(I2
I1
tp340
F0.048110733722129484
ss(g1
S'OOXOXX XO'
p341
tp342
(dp343
(I2
I0
tp344
F0.9675915445210026
ss(g1
S'  O  OX  '
p345
tp346
(dp347
(I0
I1
tp348
F0.2378372586382358
s(I0
I0
tp349
F0.9217609412969169
s(I2
I1
tp350
F0.3241697083814159
s(I2
I2
tp351
F0.8935344112798561
s(I1
I0
tp352
F0.45591153931994755
s(I1
I1
tp353
F0.3130736125438287
ss(g1
S'   X  OXO'
p354
tp355
(dp356
(I0
I1
tp357
F0.194510900441751
s(I1
I2
tp358
F0.6918142234102227
s(I0
I0
tp359
F0.6973983574451817
s(I0
I2
tp360
F0.3286781929411189
s(I1
I1
tp361
F0.584410394736896
ss(g1
S'OXO   OXX'
p362
tp363
(dp364
(I1
I2
tp365
F0.09545292308010023
s(I1
I0
tp366
F0.47929401839885355
s(I1
I1
tp367
F0.1744137400142165
ss(g1
S'  X XO O '
p368
tp369
(dp370
(I0
I1
tp371
F0.08182448688619137
s(I2
I0
tp372
F0.9268769477255764
s(I1
I0
tp373
F0.3099614989346221
s(I0
I0
tp374
F0.8621898842202785
s(I2
I2
tp375
F0.6782953530510188
ss(g1
S'X X OO OX'
p376
tp377
(dp378
(I0
I1
tp379
F0.1303592888281131
s(I2
I0
tp380
F0.8134487421875295
s(I1
I0
tp381
F0.08087460828076731
ss(g1
S'XXOOX  OO'
p382
tp383
(dp384
(I1
I2
tp385
F0.31363629407316074
s(I2
I0
tp386
F0.35201657394160646
ss(g1
S'OXXXXOO O'
p387
tp388
(dp389
(I2
I1
tp390
F0.9555679824589762
ss(g1
S'OO   XOXX'
p391
tp392
(dp393
(I1
I0
tp394
F0.334116774046771
s(I0
I2
tp395
F0.6574936743887815
s(I1
I1
tp396
F0.0405912904160034
ss(g1
S' O X O   '
p397
tp398
(dp399
(I0
I0
tp400
F0.12474681050167857
s(I2
I1
tp401
F0.36646084549201197
s(I1
I1
tp402
F0.5691951798301816
s(I2
I0
tp403
F0.15313534968059062
s(I2
I2
tp404
F0.826537354680821
s(I0
I2
tp405
F0.441276534182515
ss(g1
S'  XXOO   '
p406
tp407
(dp408
g265
F0.5618905367472296
sg269
F0.35406188246119663
sg267
F0.9096495871562534
sg268
F0.0718824227685767
sg270
F0.6382466016555882
ss(g1
S'    O    '
p409
tp410
(dp411
g36
F0.529161420624109
sg37
F0.3137790012539864
sg38
F0.5723091485194425
sg39
F0.14023447517672705
sg40
F0.2114990079405683
s(I2
I2
tp412
F0.16555559832304412
sg41
F0.9693686847465666
s(I0
I2
tp413
F0.8811324328830271
ss(g1
S'O X O X  '
p414
tp415
(dp416
(I0
I1
tp417
F0.9598473447749665
s(I1
I2
tp418
F0.7766553646217544
s(I1
I0
tp419
F0.5737105186575241
s(I2
I1
tp420
F0.3278839406947863
s(I2
I2
tp421
F0.9532025860759459
ss(g1
S'O X  XOO '
p422
tp423
(dp424
(I0
I1
tp425
F0.16180527715538684
s(I1
I0
tp426
F0.42625352616336776
s(I1
I1
tp427
F0.9224085956550232
s(I2
I2
tp428
F0.12906683923140128
ss(g1
S' X   OO X'
p429
tp430
(dp431
(I1
I0
tp432
F0.6863230038315922
s(I0
I0
tp433
F0.3079584666958821
s(I0
I2
tp434
F0.5450728856879458
s(I2
I1
tp435
F0.7154454902414178
s(I1
I1
tp436
F0.7901144518205997
ss(g1
S'O  X    O'
p437
tp438
(dp439
(I0
I1
tp440
F0.7888250835353801
s(I1
I2
tp441
F0.07638500850654018
s(I2
I1
tp442
F0.010054057904097413
s(I1
I1
tp443
F0.057216944109586554
s(I2
I0
tp444
F0.9061840832831386
s(I0
I2
tp445
F0.011054780244354134
ss(g1
S'   X O   '
p446
tp447
(dp448
(I0
I1
tp449
F0.06479231951418374
s(I0
I0
tp450
F0.21987883425321475
s(I2
I1
tp451
F0.9116289103403606
s(I1
I1
tp452
F0.3633279500389357
s(I2
I0
tp453
F0.6689489972513878
s(I2
I2
tp454
F0.547422985344863
s(I0
I2
tp455
F0.29318432831330343
ss(g1
S' XOOO XOX'
p456
tp457
(dp458
g37
F0.20514261916576482
sg38
F0.36514107070176904
ss(g1
S'O OX XOOX'
p459
tp460
(dp461
(I0
I1
tp462
F0.1567090645221687
s(I1
I1
tp463
F0.9873832650553309
ss(g1
S'XO X OO X'
p464
tp465
(dp466
(I0
I2
tp467
F0.21336837609930204
s(I2
I1
tp468
F0.8212765476847025
s(I1
I1
tp469
F0.9999877462118052
ss(g1
S' XOO     '
p470
tp471
(dp472
(I1
I2
tp473
F0.7865963638526878
s(I0
I0
tp474
F0.5327302750934664
s(I2
I1
tp475
F0.3850424333937006
s(I2
I0
tp476
F0.06921359193405097
s(I2
I2
tp477
F0.09283614588025502
s(I1
I1
tp478
F0.6049119187783856
ss(g1
S'XO  OOX X'
p479
tp480
(dp481
(I1
I0
tp482
F0.9968967528384658
s(I0
I2
tp483
F0.027731447268825482
s(I2
I1
tp484
F0.5118024144238954
ss(g323
S'OO X XO X'
p485
tp486
(dp487
(I0
I2
tp488
F0.5338579921294991
s(I2
I1
tp489
F0.2725121449038862
s(I1
I1
tp490
F0.9979816459142
ss(g1
S'OXOOO X X'
p491
tp492
(dp493
(I1
I2
tp494
F0.10180247617897398
s(I2
I1
tp495
F0.9030709603306877
ss(g1
S'XO OO OXX'
p496
tp497
(dp498
(I1
I2
tp499
F0.478868968936069
s(I0
I2
tp500
F0.2071560752779361
ss(g1
S'    XO   '
p501
tp502
(dp503
g371
F0.700909141953372
sg374
F0.4427201503618372
s(I2
I1
tp504
F0.38847606339884433
sg372
F0.1436576727990314
sg375
F0.852726601932903
sg373
F0.6965131708904017
s(I0
I2
tp505
F0.16333832347460708
ss(g1
S'  XOO XO '
p506
tp507
(dp508
(I0
I1
tp509
F0.09386119421835715
s(I1
I2
tp510
F0.7701712399314605
s(I0
I0
tp511
F0.965908025596147
s(I2
I2
tp512
F0.09913346852672622
ss(g1
S' O  XX OO'
p513
tp514
(dp515
(I2
I0
tp516
F0.4307438175137509
s(I1
I0
tp517
F0.4324397287651628
s(I0
I0
tp518
F0.807452965783876
s(I0
I2
tp519
F0.6219675020886132
ss(g1
S' O X OX O'
p520
tp521
(dp522
(I0
I0
tp523
F0.9078711744589549
s(I0
I2
tp524
F0.28294378892311944
s(I2
I1
tp525
F0.46634494181056596
s(I1
I1
tp526
F0.21544330754479812
ss(g1
S'X  XO   O'
p527
tp528
(dp529
(I0
I1
tp530
F0.060718614321490505
s(I1
I2
tp531
F0.36108713021551364
s(I0
I2
tp532
F0.7363396767387892
s(I2
I1
tp533
F0.281791051347398
s(I2
I0
tp534
F0.8721425663749622
ss(g1
S'      OOX'
p535
tp536
(dp537
(I0
I1
tp538
F0.4254060244655483
s(I1
I2
tp539
F0.9898151842692693
s(I0
I0
tp540
F0.9129893492041222
s(I1
I1
tp541
F0.4130344658324344
s(I1
I0
tp542
F0.07366518013625578
s(I0
I2
tp543
F0.27660524633206784
ss(g1
S'  XXOOOX '
p544
tp545
(dp546
g218
F0.8700264940524411
sg220
F0.39799527774977417
sg222
F0.784839360232794
ss(g1
S'O O XX  O'
p547
tp548
(dp549
(I0
I1
tp550
F0.48599065538115527
s(I2
I0
tp551
F0.8295216737204923
s(I1
I0
tp552
F0.9790389085922558
s(I2
I1
tp553
F0.9810272998547431
ss(g1
S' O    X  '
p554
tp555
(dp556
(I1
I2
tp557
F0.017764649540826127
s(I0
I0
tp558
F0.7779393624500393
sg484
F0.31872494606364576
s(I1
I1
tp559
F0.9432669308953144
s(I2
I2
tp560
F0.7481717697763528
sg482
F0.132957049748331
sg483
F0.9557794470363992
ss(g1
S'OXO XXXOO'
p561
tp562
(dp563
(I1
I0
tp564
F0.9976156471395605
ss(g1
S'XX O O XO'
p565
tp566
(dp567
(I2
I0
tp568
F0.9462858571657713
s(I0
I2
tp569
F0.9459836017385622
s(I1
I1
tp570
F0.4234482508795242
ss(g1
S'OXXOO  OX'
p571
tp572
(dp573
(I1
I2
tp574
F0.3419732901224155
s(I2
I0
tp575
F0.24734836778972236
ss(g1
S'OO XOX   '
p576
tp577
(dp578
(I2
I0
tp579
F0.4242503859563165
s(I0
I2
tp580
F0.7082273249661248
s(I2
I1
tp581
F0.6560996923140139
s(I2
I2
tp582
F0.9867374022576074
ss(g1
S'X O  XOO '
p583
tp584
(dp585
(I0
I1
tp586
F0.8088107677057844
s(I1
I0
tp587
F0.8804745929593681
s(I1
I1
tp588
F0.9136123424567091
s(I2
I2
tp589
F0.782419752948913
ss(g1
S'O   X  OX'
p590
tp591
(dp592
(I0
I1
tp593
F0.12172126669325578
s(I1
I2
tp594
F0.6736418651145974
s(I1
I0
tp595
F0.6969746659125414
s(I0
I2
tp596
F0.30796259520072156
s(I2
I0
tp597
F0.58810985306115
ss(g1
S'OXO X X O'
p598
tp599
(dp600
(I1
I2
tp601
F0.8357608126592396
s(I1
I0
tp602
F0.2120784815743192
s(I2
I1
tp603
F0.1781854321977584
ss(g1
S' OO   XX '
p604
tp605
(dp606
(I1
I2
tp607
F0.9440039364677263
s(I1
I0
tp608
F0.5897808254045269
s(I0
I0
tp609
F0.17486495873465702
s(I1
I1
tp610
F0.7666029269109075
s(I2
I2
tp611
F0.2048239009752666
ss(g1
S'OXXO OXXO'
p612
tp613
(dp614
(I1
I1
tp615
F0.9940296308133381
ss(g323
S' OOXX   O'
p616
tp617
(dp618
(I1
I2
tp619
F0.27747072163543396
s(I2
I0
tp620
F0.6353600401042016
s(I0
I0
tp621
F0.37187930510185674
s(I2
I1
tp622
F0.5005016404705489
ss(g1
S'O XX O   '
p623
tp624
(dp625
(I0
I1
tp626
F0.5093531240493495
s(I2
I0
tp627
F0.9665674949632377
s(I1
I1
tp628
F0.296827759684129
sg390
F0.2676892992072132
s(I2
I2
tp629
F0.9703787618219524
ss(g1
S' OOOX X  '
p630
tp631
(dp632
g313
F0.2098173802864084
s(I0
I0
tp633
F0.182116519574959
s(I2
I1
tp634
F0.022286687922396964
sg314
F0.06071975792552309
ss(g1
S'O XX O XO'
p635
tp636
(dp637
(I0
I1
tp638
F0.7554314434247974
s(I2
I0
tp639
F0.6536881625698246
s(I1
I1
tp640
F0.8178136651362051
ss(g1
S' O    O X'
p641
tp642
(dp643
(I1
I2
tp644
F0.2687780702899427
s(I0
I0
tp645
F0.7481808764293472
s(I2
I1
tp646
F0.8748792768311181
s(I1
I1
tp647
F0.6840798066742544
s(I1
I0
tp648
F0.7493004996688772
s(I0
I2
tp649
F0.4041338669992316
ss(g1
S' O   OXXO'
p650
tp651
(dp652
(I1
I0
tp653
F0.5164617319632078
s(I0
I0
tp654
F0.23042220098040955
s(I0
I2
tp655
F0.9246968316677616
s(I1
I1
tp656
F0.702583429413275
ss(g1
S'OXOX O  X'
p657
tp658
(dp659
(I2
I0
tp660
F0.6475829810285967
s(I1
I1
tp661
F0.3439419841967222
s(I2
I1
tp662
F0.6624648508177571
ss(g1
S' XO   O X'
p663
tp664
(dp665
g365
F0.05277085821839611
sg366
F0.37614408365176966
s(I0
I0
tp666
F0.7317123814829494
sg367
F0.8791549615468981
s(I2
I1
tp667
F0.5882537749903732
ss(g1
S' O OX  OX'
p668
tp669
(dp670
(I1
I2
tp671
F0.025523457067317068
s(I2
I0
tp672
F0.7699547975695168
s(I0
I0
tp673
F0.9925663201566572
s(I0
I2
tp674
F0.8557594591252539
ss(g1
S'XOO OX XO'
p675
tp676
(dp677
(I2
I0
tp678
F0.5865331066066298
s(I1
I0
tp679
F0.8343726936863116
ss(g1
S'OOXX OXOX'
p680
tp681
(dp682
(I1
I1
tp683
F0.9204381019692978
ss(g1
S'OX  OOX  '
p684
tp685
(dp686
(I1
I0
tp687
F0.6548659668814019
s(I0
I2
tp688
F0.8917967170431853
s(I2
I1
tp689
F0.4132918720801896
s(I2
I2
tp690
F0.17397550325575006
ss(g1
S'X  X OO  '
p691
tp692
(dp693
(I0
I1
tp694
F0.846095362752854
s(I2
I2
tp695
F0.04707013823874462
s(I0
I2
tp696
F0.2755726402450228
s(I2
I1
tp697
F0.28862060648093946
s(I1
I1
tp698
F0.3526790941075304
ss(g1
S'    OX   '
p699
tp700
(dp701
(I0
I1
tp702
F0.9885143150798804
s(I0
I0
tp703
F0.40186214119145214
s(I2
I1
tp704
F0.15780937339337853
s(I2
I0
tp705
F0.08968488769552907
s(I2
I2
tp706
F0.9874900071382996
s(I1
I0
tp707
F0.7105273185510148
s(I0
I2
tp708
F0.7784281928005153
ss(g1
S'XOX XOOXO'
p709
tp710
(dp711
(I1
I0
tp712
F0.034902890831447486
ss(g1
S'XOXX O OO'
p713
tp714
(dp715
(I2
I0
tp716
F0.09616188190819197
s(I1
I1
tp717
F0.9695388244503569
ss(g1
S'  O X    '
p718
tp719
(dp720
(I0
I1
tp721
F0.974307637344899
s(I1
I2
tp722
F0.46821073165887883
s(I0
I0
tp723
F0.7714585533800343
s(I2
I1
tp724
F0.5407418018797103
s(I2
I0
tp725
F0.1293818977949508
s(I2
I2
tp726
F0.033952789699713604
s(I1
I0
tp727
F0.33310088831082985
ss(g1
S'     XOO '
p728
tp729
(dp730
g462
F0.6381829464298736
s(I0
I0
tp731
F0.4135835384112969
sg463
F0.2869556631621951
s(I2
I2
tp732
F0.4166431159557078
s(I1
I0
tp733
F0.1476070762745132
s(I0
I2
tp734
F0.2613259514609356
ss(g1
S'XO OX   O'
p735
tp736
(dp737
(I1
I2
tp738
F0.0726821627469385
sg97
F0.3686000594149961
sg98
F0.6119594940877299
s(I2
I1
tp739
F0.16011477043961775
ss(g1
S' OXXOX  O'
p740
tp741
(dp742
g297
F0.050585934158111634
sg299
F0.7691976367343843
sg300
F0.2863341788861451
ss(g1
S' OO     X'
p743
tp744
(dp745
g112
F0.07298145293045233
sg113
F0.9158716936469317
sg115
F0.6891924476616201
s(I2
I0
tp746
F0.7085637069340384
s(I1
I0
tp747
F0.37364966097924424
sg114
F0.9443619795409748
ss(g1
S'X  O O   '
p748
tp749
(dp750
(I0
I1
tp751
F0.3134935794118574
s(I2
I1
tp752
F0.027731740199459898
s(I1
I1
tp753
F0.1537143857171709
s(I2
I0
tp754
F0.6354195880839381
s(I2
I2
tp755
F0.8325140236657762
s(I0
I2
tp756
F0.567262562312854
ss(g1
S'O  OXOXXO'
p757
tp758
(dp759
(I0
I1
tp760
F0.9824383460396366
s(I0
I2
tp761
F0.5434134289943331
ss(g1
S'X  O  X O'
p762
tp763
(dp764
(I0
I1
tp765
F0.3610414612162238
s(I1
I2
tp766
F0.7218361027717608
s(I0
I2
tp767
F0.37456336545793645
s(I2
I1
tp768
F0.9649250626056607
s(I1
I1
tp769
F0.222551265951483
ss(g1
S'OO OXXXO '
p770
tp771
(dp772
(I0
I2
tp773
F0.6728779738836854
s(I2
I2
tp774
F0.12744195512158507
ss(g1
S'XO  X   O'
p775
tp776
(dp777
(I1
I2
tp778
F0.16108794606596055
s(I2
I0
tp779
F0.38051218053728353
sg712
F0.28679374978249517
s(I0
I2
tp780
F0.2710430840628689
s(I2
I1
tp781
F0.7956699611415518
ss(g1
S' O OXO XX'
p782
tp783
(dp784
(I2
I0
tp785
F0.9822774490165147
s(I0
I0
tp786
F0.6908946071470075
s(I0
I2
tp787
F0.48840959217027546
ss(g1
S'  O  OX X'
p788
tp789
(dp790
(I0
I1
tp791
F0.826615447236665
s(I1
I0
tp792
F0.5488134056643879
s(I0
I0
tp793
F0.33712268984546623
s(I1
I1
tp794
F0.432604906392437
s(I2
I1
tp795
F0.5813893072702665
ss(g1
S'OO X XOOX'
p796
tp797
(dp798
(I0
I2
tp799
F0.949443310545796
s(I1
I1
tp800
F0.347194835954714
ss(g1
S'O  X  O X'
p801
tp802
(dp803
(I0
I1
tp804
F0.4000023278239264
s(I1
I2
tp805
F0.26674403541779457
s(I0
I2
tp806
F0.927907906195538
s(I2
I1
tp807
F0.6057164088616966
s(I1
I1
tp808
F0.054062525443140275
ss(g1
S'XO  OX  O'
p809
tp810
(dp811
g678
F0.49261724853624655
sg679
F0.6906847594801326
s(I0
I2
tp812
F0.8478280336041578
s(I2
I1
tp813
F0.0557407120773622
ss(g1
S'O  OX  X '
p814
tp815
(dp816
(I0
I1
tp817
F0.19315057374217293
s(I1
I2
tp818
F0.17597457847929043
s(I2
I2
tp819
F0.5669219026229594
s(I0
I2
tp820
F0.9892077667319709
sg344
F0.4767597716813159
ss(g1
S' O  O X X'
p821
tp822
(dp823
g557
F0.4048679467983983
sg482
F0.5408343668540003
sg558
F0.764088029349311
sg483
F0.5588815652161239
sg484
F0.5045068494943306
ss(g1
S'X       O'
p824
tp825
(dp826
(I0
I1
tp827
F0.42652394512055825
sg778
F0.11196515222961745
sg781
F0.2470419046388157
s(I1
I1
tp828
F0.47341050781137484
sg779
F0.5720227345737252
sg712
F0.5978783947749328
sg780
F0.14067959593421997
ss(g1
S'  XX OO O'
p829
tp830
(dp831
(I0
I1
tp832
F0.9426646486391498
s(I0
I0
tp833
F0.9335629389000979
s(I1
I1
tp834
F0.9890663721224552
s(I2
I1
tp835
F0.45320766232964105
ss(g1
S' XO  OXO '
p836
tp837
(dp838
(I1
I0
tp839
F0.8996022361056827
s(I0
I0
tp840
F0.7410735969404862
s(I1
I1
tp841
F0.046241801789663306
s(I2
I2
tp842
F0.9512968206230311
ss(g1
S'  OOO X X'
p843
tp844
(dp845
(I0
I1
tp846
F0.4430426024924944
sg494
F0.9350722289065422
s(I0
I0
tp847
F0.994041752037767
sg495
F0.5862645749816998
ss(g1
S'O  X XO O'
p848
tp849
(dp850
(I0
I1
tp851
F0.9028068507620468
s(I0
I2
tp852
F0.7568525839752558
s(I2
I1
tp853
F0.8652079441951284
s(I1
I1
tp854
F0.9952506477172952
ss(g1
S' O   X OX'
p855
tp856
(dp857
(I2
I0
tp858
F0.4113474379740869
s(I1
I0
tp859
F0.36755948071583866
s(I0
I0
tp860
F0.16472576014910456
s(I0
I2
tp861
F0.18328747443302107
s(I1
I1
tp862
F0.5671408195437992
ss(g1
S'O  OX X O'
p863
tp864
(dp865
(I0
I1
tp866
F0.6856986799100011
s(I1
I2
tp867
F0.4331495594998164
s(I0
I2
tp868
F0.9999999801887111
s(I2
I1
tp869
F0.7667412820749916
ss(g1
S'O O XX XO'
p870
tp871
(dp872
(I0
I1
tp873
F0.9139209413598111
s(I2
I0
tp874
F0.6866613764322332
s(I1
I0
tp875
F0.9799161263536585
ss(g1
S'OOXXXO XO'
p876
tp877
(dp878
g177
F0.965874762799136
ss(g1
S'   O   X '
p879
tp880
(dp881
(I0
I1
tp882
F0.8390087987113705
s(I1
I2
tp883
F0.4804472200322243
s(I0
I0
tp884
F0.8654468028000843
s(I1
I1
tp885
F0.8546777799185143
s(I2
I0
tp886
F0.9938069715774672
s(I2
I2
tp887
F0.706600729465677
s(I0
I2
tp888
F0.6113938754133914
ss(g1
S'  O XO  X'
p889
tp890
(dp891
(I0
I1
tp892
F0.3164675638809832
s(I2
I0
tp893
F0.8299413840508814
s(I1
I0
tp894
F0.23091041866240536
s(I0
I0
tp895
F0.8202902900836696
s(I2
I1
tp896
F0.14981745273171743
ss(g1
S'XOOOXX XO'
p897
tp898
(dp899
(I2
I0
tp900
F0.46682326983394673
ss(g1
S' OX O X  '
p901
tp902
(dp903
(I1
I2
tp904
F0.9011933515511364
s(I1
I0
tp905
F0.1932978110364525
s(I0
I0
tp906
F0.5397263215190375
s(I2
I1
tp907
F0.09554502097151163
s(I2
I2
tp908
F0.1640974653992946
ss(g1
S'O  XX O  '
p909
tp910
(dp911
(I0
I1
tp912
F0.8308728325742154
s(I1
I2
tp913
F0.9714840710835895
s(I0
I2
tp914
F0.38742805268916614
s(I2
I1
tp915
F0.26468710014388064
s(I2
I2
tp916
F0.9435650887951501
ss(g1
S'XO O O X '
p917
tp918
(dp919
(I2
I0
tp920
F0.042549496871864045
s(I2
I2
tp921
F0.6213984709301009
s(I0
I2
tp922
F0.8178182949252134
s(I1
I1
tp923
F0.1006235718429922
ss(g1
S'XX OO XOO'
p924
tp925
(dp926
(I1
I2
tp927
F0.7849121099027692
s(I0
I2
tp928
F0.7138120010951428
ss(g1
S'OOX XXO O'
p929
tp930
(dp931
(I1
I0
tp932
F0.3280063691506808
s(I2
I1
tp933
F0.7411922085438469
ss(g1
S' O  XO  X'
p934
tp935
(dp936
g785
F0.17652949510390625
s(I1
I0
tp937
F0.08660888338979167
sg786
F0.9999999627620281
sg787
F0.03030972108562957
s(I2
I1
tp938
F0.17833075690019906
ss(g1
S'O    OX  '
p939
tp940
(dp941
(I0
I1
tp942
F0.04408448995660175
sg689
F0.9992953219346584
s(I1
I1
tp943
F0.43191474880457004
sg690
F0.2998304370424175
sg687
F0.5874421792742643
sg688
F0.26144206789352287
ss(g1
S'  O OX   '
p944
tp945
(dp946
(I0
I1
tp947
F0.27252820123299226
s(I0
I0
tp948
F0.44377882442493544
s(I2
I1
tp949
F0.36584755273737857
s(I2
I0
tp950
F0.12015280191870048
s(I2
I2
tp951
F0.6192416929502077
s(I1
I0
tp952
F0.7882291856838273
ss(g1
S'O O XO XX'
p953
tp954
(dp955
(I0
I1
tp956
F0.4701307288191878
s(I2
I0
tp957
F0.6287749890732952
s(I1
I0
tp958
F0.20782144112425693
ss(g1
S'XO   XOOX'
p959
tp960
(dp961
(I1
I0
tp962
F0.41693831737361964
s(I0
I2
tp963
F0.8810761028877662
sg198
F0.03519754952644094
ss(g323
S'  OXX  OO'
p964
tp965
(dp966
(I0
I1
tp967
F0.04745841276978113
s(I1
I2
tp968
F0.760538250562361
s(I0
I0
tp969
F0.8104081135039856
s(I2
I0
tp970
F0.7990259618743858
ss(g1
S'X O O   X'
p971
tp972
(dp973
(I0
I1
tp974
F0.1388684703671098
s(I1
I2
tp975
F0.6062926974356663
s(I1
I0
tp976
F0.711884409936482
s(I2
I1
tp977
F0.6730078422796953
s(I2
I0
tp978
F0.6428306978751344
ss(g1
S'XO O OXOX'
p979
tp980
(dp981
(I0
I2
tp982
F0.24438039457972793
s(I1
I1
tp983
F0.9355344789145464
ss(g1
S'XOX O    '
p984
tp985
(dp986
(I1
I2
tp987
F0.16529770461569104
s(I2
I0
tp988
F0.6745555298869358
s(I1
I0
tp989
F0.01661000665250656
s(I2
I1
tp990
F0.9677571954699665
s(I2
I2
tp991
F0.49518866445394205
ss(g1
S'   OXOO X'
p992
tp993
(dp994
(I0
I1
tp995
F0.8395334418897594
s(I0
I0
tp996
F0.4475509167838412
s(I0
I2
tp997
F0.43292021249195056
s(I2
I1
tp998
F0.518402615002653
ss(g1
S'OOXOOX X '
p999
tp1000
(dp1001
(I2
I0
tp1002
F0.12285058581629671
s(I2
I2
tp1003
F0.993279305067338
ss(g1
S'  O XX OO'
p1004
tp1005
(dp1006
(I0
I1
tp1007
F0.4409432337609578
s(I2
I0
tp1008
F0.8656029750819131
s(I1
I0
tp1009
F0.9999991025899709
s(I0
I0
tp1010
F0.22064412659572263
ss(g1
S'X O    XO'
p1011
tp1012
(dp1013
(I0
I1
tp1014
F0.31196639272856286
s(I1
I2
tp1015
F0.22993290006044287
s(I1
I0
tp1016
F0.06206373432434109
s(I1
I1
tp1017
F0.48281688539145495
s(I2
I0
tp1018
F0.9696517454670402
ss(g1
S'   OOXX O'
p1019
tp1020
(dp1021
(I0
I1
tp1022
F0.47540484767900826
s(I0
I0
tp1023
F0.06703413847055406
s(I0
I2
tp1024
F0.7498941362323899
s(I2
I1
tp1025
F0.1093725060341938
ss(g1
S'O  O OXX '
p1026
tp1027
(dp1028
(I0
I1
tp1029
F0.27914771464360344
s(I2
I2
tp1030
F0.16121411232287408
s(I0
I2
tp1031
F0.6725235158282612
s(I1
I1
tp1032
F0.9805878334790069
ss(g1
S' OO X    '
p1033
tp1034
(dp1035
g249
F0.4999431863973095
sg251
F0.2305420966609243
sg252
F0.5129361353326952
s(I2
I0
tp1036
F0.20856600138452275
s(I2
I2
tp1037
F0.42465341045722615
sg250
F0.05580493012393961
ss(g1
S'  O OOXX '
p1038
tp1039
(dp1040
g348
F0.9213359307053567
sg352
F0.17100581289371286
sg349
F0.8200735881900113
sg351
F0.21289992929535062
ss(g1
S' OXOXO   '
p1041
tp1042
(dp1043
(I2
I0
tp1044
F0.9762598357499164
s(I0
I0
tp1045
F0.0033690927197952414
s(I2
I1
tp1046
F0.49310800235250163
s(I2
I2
tp1047
F0.05913389649751899
ss(g1
S'XXOOO XO '
p1048
tp1049
(dp1050
(I1
I2
tp1051
F0.42801257855496166
s(I2
I2
tp1052
F0.4690301216426842
ss(g1
S' O OXOXXO'
p1053
tp1054
(dp1055
(I0
I0
tp1056
F0.2830396169682048
s(I0
I2
tp1057
F0.7537751216930797
ss(g1
S'X OO  XO '
p1058
tp1059
(dp1060
(I0
I1
tp1061
F0.6313203077419217
s(I1
I2
tp1062
F0.3832830411060262
s(I1
I1
tp1063
F0.5951221284817729
s(I2
I2
tp1064
F0.39809003508464613
ss(g1
S'O   X O X'
p1065
tp1066
(dp1067
(I0
I1
tp1068
F0.1078588669556515
s(I1
I2
tp1069
F0.728823675775273
s(I1
I0
tp1070
F0.7763812722297159
s(I0
I2
tp1071
F0.23376489298315384
s(I2
I1
tp1072
F0.9115125131616455
ss(g1
S' O XX  OO'
p1073
tp1074
(dp1075
(I1
I2
tp1076
F0.393441104944548
s(I2
I0
tp1077
F0.5199347677772387
s(I0
I0
tp1078
F0.23403712387015174
s(I0
I2
tp1079
F0.8461684366289541
ss(g1
S'O XXOXO  '
p1080
tp1081
(dp1082
(I0
I1
tp1083
F0.09275167397181372
s(I2
I1
tp1084
F0.9279206492459616
s(I2
I2
tp1085
F0.9846915988126757
ss(g1
S'  OO  X  '
p1086
tp1087
(dp1088
(I0
I1
tp1089
F0.8931552879073101
sg1051
F0.18489417916449968
s(I0
I0
tp1090
F0.7112782312704471
s(I2
I1
tp1091
F0.7028011754310551
sg1052
F0.014972311682804218
s(I1
I1
tp1092
F0.8639209330145255
ss(g1
S'OO  X OXX'
p1093
tp1094
(dp1095
g1069
F0.2227612717253732
sg1070
F0.2562130621379979
sg1071
F0.17449727491604816
ss(g1
S'   OOXO X'
p1096
tp1097
(dp1098
(I0
I1
tp1099
F0.8246173259534472
s(I0
I0
tp1100
F0.14462074073929398
s(I0
I2
tp1101
F0.8457904845714876
s(I2
I1
tp1102
F0.4334925313147472
ss(g1
S' OOX X  O'
p1103
tp1104
(dp1105
(I2
I0
tp1106
F0.8086096172805205
s(I0
I0
tp1107
F0.25546750988288913
s(I1
I1
tp1108
F0.9616467681079277
s(I2
I1
tp1109
F0.034335340792916114
ss(g1
S'OXOX XOOX'
p1110
tp1111
(dp1112
(I1
I1
tp1113
F0.963528703440911
ss(g1
S'X OOOXXOX'
p1114
tp1115
(dp1116
(I0
I1
tp1117
F0.799656568263751
ss(g1
S'O   OXO X'
p1118
tp1119
(dp1120
(I0
I1
tp1121
F0.6605266220527939
s(I1
I0
tp1122
F0.05553259038584435
s(I0
I2
tp1123
F0.5286075004980951
s(I2
I1
tp1124
F0.6941093757805722
ss(g1
S' X     O '
p1125
tp1126
(dp1127
(I1
I2
tp1128
F0.755437201887971
s(I0
I0
tp1129
F0.5139054915160778
s(I1
I1
tp1130
F0.5083425082435966
s(I2
I0
tp1131
F0.6830899793103397
s(I2
I2
tp1132
F0.624496892441906
s(I1
I0
tp1133
F0.3506887147552561
s(I0
I2
tp1134
F0.8254000083128716
ss(g1
S'OXOOX X O'
p1135
tp1136
(dp1137
(I1
I2
tp1138
F0.9411620505526953
s(I2
I1
tp1139
F0.13864354850124172
ss(g1
S'XO OX    '
p1140
tp1141
(dp1142
(I1
I2
tp1143
F0.9603672123631157
s(I2
I0
tp1144
F0.19697421853869934
s(I0
I2
tp1145
F0.4810641514576628
s(I2
I1
tp1146
F0.1700884172510112
sg232
F0.19531596181538857
ss(g1
S' O      X'
p1147
tp1148
(dp1149
(I1
I2
tp1150
F0.5953968862127087
s(I0
I0
tp1151
F0.0645847040412626
s(I2
I1
tp1152
F0.6689917921641165
s(I1
I1
tp1153
F0.5774817439494423
s(I2
I0
tp1154
F0.9512350503332713
s(I1
I0
tp1155
F0.022973899623465632
s(I0
I2
tp1156
F0.878702313167619
ss(g1
S' X O OOXX'
p1157
tp1158
(dp1159
g433
F0.08698982866474447
sg434
F0.8252783440940689
sg436
F0.8312842015248323
ss(g1
S' XXO   O '
p1160
tp1161
(dp1162
(I1
I2
tp1163
F0.1637227425796316
s(I2
I0
tp1164
F0.32336646193600727
s(I0
I0
tp1165
F0.9716673548300092
s(I1
I1
tp1166
F0.05735210232506427
s(I2
I2
tp1167
F0.7659341798880486
ss(g1
S'  XOOXO  '
p1168
tp1169
(dp1170
(I0
I1
tp1171
F0.2660011905477092
s(I0
I0
tp1172
F0.6985962617380119
s(I2
I1
tp1173
F0.8708747052410551
s(I2
I2
tp1174
F0.9492780677822483
ss(g1
S'    X O  '
p1175
tp1176
(dp1177
(I0
I1
tp1178
F0.29324508713372455
s(I1
I2
tp1179
F0.7043151906512946
s(I0
I0
tp1180
F0.8729199025451444
s(I2
I1
tp1181
F0.4885107712591754
s(I2
I2
tp1182
F0.15215678269173416
s(I1
I0
tp1183
F0.13800350272863815
s(I0
I2
tp1184
F0.6407824721258311
ss(g1
S'  O   X O'
p1185
tp1186
(dp1187
(I0
I1
tp1188
F0.5277992375565475
s(I1
I2
tp1189
F0.8887649986580416
s(I0
I0
tp1190
F0.9837387322657797
s(I2
I1
tp1191
F0.8538288645628759
s(I1
I0
tp1192
F0.5506536740139165
s(I1
I1
tp1193
F0.043476440193425336
ss(g1
S'O   XXOO '
p1194
tp1195
(dp1196
(I0
I1
tp1197
F0.3775075194923996
s(I1
I0
tp1198
F0.8386401767005937
s(I0
I2
tp1199
F0.6388358922717199
s(I2
I2
tp1200
F0.9054866648593631
ss(g1
S'O  OX   X'
p1201
tp1202
(dp1203
(I0
I1
tp1204
F0.8904833298620217
s(I1
I2
tp1205
F0.3334509005840839
s(I0
I2
tp1206
F0.9942941888946727
s(I2
I1
tp1207
F0.4280769689044934
s(I2
I0
tp1208
F0.7598825991050426
ss(g1
S' O  OX   '
p1209
tp1210
(dp1211
(I0
I0
tp1212
F0.7443295061480122
s(I2
I1
tp1213
F0.8549421423780077
s(I2
I0
tp1214
F0.7950971194167428
s(I2
I2
tp1215
F0.7843405770580305
s(I1
I0
tp1216
F0.8150014602779362
s(I0
I2
tp1217
F0.6171612083667877
ss(g323
S'XO X   OO'
p1218
tp1219
(dp1220
g328
F0.6891351965639295
sg332
F0.09316813996764817
sg331
F0.3130212169917348
sg334
F0.3575837025231188
ss(g1
S' XOO OXX '
p1221
tp1222
(dp1223
(I0
I0
tp1224
F0.01942079033377353
s(I1
I1
tp1225
F0.019348177565057467
s(I2
I2
tp1226
F0.9181476395975398
ss(g1
S'OO X  XOX'
p1227
tp1228
(dp1229
(I1
I2
tp1230
F0.2773405388660848
s(I0
I2
tp1231
F0.0004734436143364329
s(I1
I1
tp1232
F0.9152169832410175
ss(g1
S'O OX    X'
p1233
tp1234
(dp1235
(I0
I1
tp1236
F0.07123730056902111
s(I1
I2
tp1237
F0.07871480147124754
sg1113
F0.14966443931403373
s(I2
I1
tp1238
F0.9298275372044728
s(I2
I0
tp1239
F0.8770837769153551
ss(g1
S'OOX   OXX'
p1240
tp1241
(dp1242
(I1
I2
tp1243
F0.15514887812633027
s(I1
I0
tp1244
F0.8452452367079302
s(I1
I1
tp1245
F0.5888698836641638
ss(g1
S' OXX    O'
p1246
tp1247
(dp1248
(I1
I2
tp1249
F0.20188788911289524
s(I2
I0
tp1250
F0.026416294243616245
s(I0
I0
tp1251
F0.20444116453026273
s(I1
I1
tp1252
F0.29413339277446815
s(I2
I1
tp1253
F0.7057781444193971
ss(g1
S'OXO OOXX '
p1254
tp1255
(dp1256
(I1
I0
tp1257
F0.40061696520043744
s(I2
I2
tp1258
F0.9154839620727317
ss(g1
S'O XXO O X'
p1259
tp1260
(dp1261
(I0
I1
tp1262
F0.07881217027501852
s(I1
I2
tp1263
F0.8170878092095974
s(I2
I1
tp1264
F0.46346177947890843
ss(g1
S'  XXOXO O'
p1265
tp1266
(dp1267
(I0
I1
tp1268
F0.7378925201678249
s(I0
I0
tp1269
F0.5118115194553172
s(I2
I1
tp1270
F0.5755365137526389
ss(g1
S' O       '
p1271
tp1272
(dp1273
(I1
I2
tp1274
F0.7881216282510776
s(I0
I0
tp1275
F0.926773658875862
s(I2
I1
tp1276
F0.24814463610970128
s(I1
I1
tp1277
F0.2992300703807561
s(I2
I0
tp1278
F0.05466843558198953
s(I2
I2
tp1279
F0.7087360072139152
s(I1
I0
tp1280
F0.9754497255949237
s(I0
I2
tp1281
F0.7581559943561617
ss(g323
S'X OX  O  '
p1282
tp1283
(dp1284
(I0
I1
tp1285
F0.10439715645581482
s(I1
I2
tp1286
F0.534532920476798
s(I1
I1
tp1287
F0.8854414268613642
s(I2
I1
tp1288
F0.674212002477372
s(I2
I2
tp1289
F0.7853308543924561
ss(g1
S'OX  XOO X'
p1290
tp1291
(dp1292
(I1
I0
tp1293
F0.18738657820725335
s(I0
I2
tp1294
F0.14564462595908845
s(I2
I1
tp1295
F0.9999976093982417
ss(g1
S'X   X OO '
p1296
tp1297
(dp1298
(I0
I1
tp1299
F0.3979684418862237
s(I1
I2
tp1300
F0.48048186256579284
s(I1
I0
tp1301
F0.19265739461634002
s(I0
I2
tp1302
F0.22483496225199973
s(I2
I2
tp1303
F0.9623399099672886
ss(g1
S'OXX OXOO '
p1304
tp1305
(dp1306
(I1
I0
tp1307
F0.9009290934077526
s(I2
I2
tp1308
F0.176004847615997
ss(g1
S'OO   XXOX'
p1309
tp1310
(dp1311
g859
F0.5523330773535611
sg861
F0.13098470624310377
sg862
F0.6133282330858734
ss(g1
S'O XO OXXO'
p1312
tp1313
(dp1314
(I0
I1
tp1315
F0.5231753080713101
s(I1
I1
tp1316
F0.9796776909953211
ss(g1
S'O    OXXO'
p1317
tp1318
(dp1319
(I0
I1
tp1320
F0.13847313228097236
s(I1
I0
tp1321
F0.8639423372330477
s(I0
I2
tp1322
F0.28235095332268123
s(I1
I1
tp1323
F0.4614516693829178
ss(g1
S'OOX  XOXO'
p1324
tp1325
(dp1326
(I1
I0
tp1327
F0.5538164408026734
s(I1
I1
tp1328
F0.6456302973297382
ss(g1
S'XOOO X XO'
p1329
tp1330
(dp1331
(I2
I0
tp1332
F0.21790563042174038
s(I1
I1
tp1333
F0.7065486332445161
ss(g1
S' O O XO X'
p1334
tp1335
(dp1336
(I0
I0
tp1337
F0.804710570756619
s(I0
I2
tp1338
F0.9041358955549426
s(I2
I1
tp1339
F0.7976181020083654
s(I1
I1
tp1340
F0.7615313205456742
ss(g1
S'O  X   OX'
p1341
tp1342
(dp1343
(I0
I1
tp1344
F0.5271846148357846
s(I1
I2
tp1345
F0.6414675854794378
s(I2
I0
tp1346
F0.2702040721977367
s(I0
I2
tp1347
F0.19638165559460508
s(I1
I1
tp1348
F0.8542155181823978
ss(g1
S'X  XO OXO'
p1349
tp1350
(dp1351
(I0
I1
tp1352
F0.05621496674159199
s(I1
I2
tp1353
F0.4502407294505246
s(I0
I2
tp1354
F0.8718467539764696
ss(g1
S'XOOXXO O '
p1355
tp1356
(dp1357
(I2
I0
tp1358
F0.09208932281219662
s(I2
I2
tp1359
F0.9207750073895478
ss(g1
S'O OOX X  '
p1360
tp1361
(dp1362
(I0
I1
tp1363
F0.1400334906933538
s(I1
I2
tp1364
F0.35254167414589177
s(I2
I1
tp1365
F0.6509423454419487
s(I2
I2
tp1366
F0.9249533178468736
ss(g1
S' OX OX XO'
p1367
tp1368
(dp1369
(I2
I0
tp1370
F0.8608563713441484
s(I1
I0
tp1371
F0.8093285200107578
s(I0
I0
tp1372
F0.2236700725032582
ss(g1
S'O X    OX'
p1373
tp1374
(dp1375
(I0
I1
tp1376
F0.8306594668901911
s(I1
I2
tp1377
F0.7043786444052422
s(I1
I0
tp1378
F0.5626186511804766
s(I1
I1
tp1379
F0.7259854411175723
s(I2
I0
tp1380
F0.33803928559990937
ss(g1
S'   X O  O'
p1381
tp1382
(dp1383
(I0
I1
tp1384
F0.7746620573695125
s(I0
I0
tp1385
F0.022777837909565557
s(I2
I1
tp1386
F0.5784789390304788
s(I1
I1
tp1387
F0.6074870900181459
s(I2
I0
tp1388
F0.14242256071887516
s(I0
I2
tp1389
F0.9395796509102349
ss(g1
S' OOOOX XX'
p1390
tp1391
(dp1392
(I2
I0
tp1393
F0.4920301276858575
s(I0
I0
tp1394
F0.41412598621160923
ss(g1
S'X OO OXOX'
p1395
tp1396
(dp1397
g1061
F0.43743665423692335
sg1063
F0.972746061790382
ss(g1
S'O XX O OX'
p1398
tp1399
(dp1400
g1376
F0.9565507820913114
sg1380
F0.883695521357912
sg1379
F0.4291369967698775
ss(g1
S'O O  XOXX'
p1401
tp1402
(dp1403
(I0
I1
tp1404
F0.052728415249966964
s(I1
I0
tp1405
F0.8859006402181543
s(I1
I1
tp1406
F0.26516282102866484
ss(g1
S'O XO  X O'
p1407
tp1408
(dp1409
g1315
F0.07986384533131963
s(I1
I2
tp1410
F0.13186446648678507
sg1316
F0.8484638809908196
s(I2
I1
tp1411
F0.4889658427741873
ss(g1
S'XO O OXXO'
p1412
tp1413
(dp1414
(I0
I2
tp1415
F0.23651594254828923
s(I1
I1
tp1416
F0.25956435331107386
ss(g1
S' XOOXO   '
p1417
tp1418
(dp1419
(I2
I0
tp1420
F0.0422329783510379
s(I0
I0
tp1421
F0.9999780731594815
s(I2
I1
tp1422
F0.03361904317970399
s(I2
I2
tp1423
F0.3416524785064854
ss(g1
S'XXOO XXOO'
p1424
tp1425
(dp1426
(I1
I1
tp1427
F0.45305754825526645
ss(g1
S'XOOX    O'
p1428
tp1429
(dp1430
(I1
I2
tp1431
F0.5333653439949034
s(I2
I0
tp1432
F0.025049126647000097
s(I1
I1
tp1433
F0.21631131820548188
s(I2
I1
tp1434
F0.2635000245346799
ss(g1
S'  O      '
p1435
tp1436
(dp1437
(I0
I1
tp1438
F0.05475792547674052
s(I1
I2
tp1439
F0.7172198887347436
s(I0
I0
tp1440
F0.6286250675771627
s(I2
I1
tp1441
F0.8770365596226178
s(I2
I0
tp1442
F0.35433943572859905
sg1258
F0.13189708628270136
sg1257
F0.6691201216580466
s(I1
I1
tp1443
F0.34367313208985306
ss(g1
S'  O  XOOX'
p1444
tp1445
(dp1446
g462
F0.35346324425121445
sg733
F0.9556229509482833
sg731
F0.525174881304004
sg463
F0.09024748892633838
ss(g1
S'OX  XO OX'
p1447
tp1448
(dp1449
(I2
I0
tp1450
F0.9432816207929837
s(I1
I0
tp1451
F0.6401907972232723
s(I0
I2
tp1452
F0.4497037823396788
ss(g1
S'O  O  XXO'
p1453
tp1454
(dp1455
g760
F0.3439143505302573
s(I1
I2
tp1456
F0.2961821643509257
sg761
F0.03542536924447637
s(I1
I1
tp1457
F0.03844546107191338
ss(g1
S'   OO X  '
p1458
tp1459
(dp1460
g846
F0.46534825179935124
sg494
F0.6672504081825406
sg847
F0.3429060159578995
sg495
F0.3273021021473488
s(I2
I2
tp1461
F0.6440780674295752
s(I0
I2
tp1462
F0.27398867253994874
ss(g1
S' OOOXXOX '
p1463
tp1464
(dp1465
(I0
I0
tp1466
F0.683930816434465
s(I2
I2
tp1467
F0.019678781621141894
ss(g1
S'      O  '
p1468
tp1469
(dp1470
(I0
I1
tp1471
F0.034596964086373805
s(I1
I2
tp1472
F0.7141503325856693
s(I0
I0
tp1473
F0.22570203271231504
s(I2
I1
tp1474
F0.28346493114380955
s(I1
I1
tp1475
F0.614178757092128
s(I2
I2
tp1476
F0.8379670285458716
s(I1
I0
tp1477
F0.9269159703434005
s(I0
I2
tp1478
F0.44517240175085826
ss(g1
S'O X OXO  '
p1479
tp1480
(dp1481
(I0
I1
tp1482
F0.7279864624722501
s(I1
I0
tp1483
F0.963059362247774
s(I2
I1
tp1484
F0.3767371346147883
s(I2
I2
tp1485
F0.0912945652110686
ss(g1
S'OOX XOOXX'
p1486
tp1487
(dp1488
(I1
I0
tp1489
F0.553497999258218
ss(g1
S'XX OXO OO'
p1490
tp1491
(dp1492
g292
F0.09723558404730437
sg291
F0.9952185750562682
ss(g1
S'XO OXO   '
p1493
tp1494
(dp1495
(I2
I0
tp1496
F0.5315366396873595
s(I0
I2
tp1497
F0.09427525880036791
s(I2
I1
tp1498
F0.33145515179778284
s(I2
I2
tp1499
F0.9098588388582228
ss(g1
S'XX XO OO '
p1500
tp1501
(dp1502
(I1
I2
tp1503
F0.2711364555763026
s(I0
I2
tp1504
F0.9197637855262109
s(I2
I2
tp1505
F0.9835146623725542
ss(g1
S'OO XX OXO'
p1506
tp1507
(dp1508
(I1
I2
tp1509
F0.3359114320353679
s(I0
I2
tp1510
F0.46897652212314145
ss(g1
S'OX  XXO O'
p1511
tp1512
(dp1513
(I1
I0
tp1514
F0.9098431980564924
s(I0
I2
tp1515
F0.4888270633660923
s(I2
I1
tp1516
F0.41512640176165794
ss(g1
S'XOX XO OO'
p1517
tp1518
(dp1519
(I2
I0
tp1520
F0.36361643363337925
s(I1
I0
tp1521
F0.20679393430196824
ss(g1
S'  X O  O '
p1522
tp1523
(dp1524
g509
F0.550504079187112
sg510
F0.39659973171733975
sg511
F0.34894304996574643
s(I2
I0
tp1525
F0.5420805117769115
sg512
F0.8309545936371793
s(I1
I0
tp1526
F0.44880676740576697
ss(g1
S' X      O'
p1527
tp1528
(dp1529
(I1
I2
tp1530
F0.2561683830435205
s(I0
I0
tp1531
F0.07469657851060807
s(I2
I1
tp1532
F0.7426911726038253
sg1427
F0.3290171707850046
s(I2
I0
tp1533
F0.44642746656772947
s(I1
I0
tp1534
F0.29627459042325854
s(I0
I2
tp1535
F0.05132547360961237
ss(g1
S'OX   XOO '
p1536
tp1537
(dp1538
g1307
F0.9401851047087648
sg1308
F0.266969418591545
s(I0
I2
tp1539
F0.6762366676478668
s(I1
I1
tp1540
F0.5904339260416801
ss(g1
S' OO  XOXX'
p1541
tp1542
(dp1543
(I1
I0
tp1544
F0.13365866880652633
s(I0
I0
tp1545
F0.7409185322562147
s(I1
I1
tp1546
F0.8715528628027244
ss(g1
S' OXXOOOXX'
p1547
tp1548
(dp1549
g220
F0.9013464010383929
ss(g1
S'   XOOXXO'
p1550
tp1551
(dp1552
(I0
I1
tp1553
F0.47546607072921565
s(I0
I0
tp1554
F0.7840813372578889
s(I0
I2
tp1555
F0.18433121665731522
ss(g1
S' XOOOXX O'
p1556
tp1557
(dp1558
(I0
I0
tp1559
F0.18873072334711527
s(I2
I1
tp1560
F0.8892986266651521
ss(g1
S'X O      '
p1561
tp1562
(dp1563
g1014
F0.9257682302539615
sg1015
F0.5516703952087426
s(I2
I1
tp1564
F0.5837510032005366
sg1018
F0.29441250884241854
s(I2
I2
tp1565
F0.9566384484209168
sg1016
F0.20025682325105865
sg1017
F0.9169654613259125
ss(g1
S'O O  X   '
p1566
tp1567
(dp1568
(I0
I1
tp1569
F0.4165382308450428
s(I2
I1
tp1570
F0.2421245762664359
s(I2
I0
tp1571
F0.22331666104321246
s(I2
I2
tp1572
F0.8456027577522384
s(I1
I0
tp1573
F0.48508083719323625
s(I1
I1
tp1574
F0.1432474905522676
ss(g1
S'O  XX OOX'
p1575
tp1576
(dp1577
(I0
I1
tp1578
F0.7393635818112583
s(I1
I2
tp1579
F0.9744407119817105
s(I0
I2
tp1580
F0.32083322278046644
ss(g1
S'O OX X   '
p1581
tp1582
(dp1583
(I0
I1
tp1584
F0.39606186139490285
s(I2
I0
tp1585
F0.9212832446717664
s(I1
I1
tp1586
F0.5128930339384867
s(I2
I1
tp1587
F0.3375192734358017
s(I2
I2
tp1588
F0.2692534588580323
ss(g1
S'OO  XXOOX'
p1589
tp1590
(dp1591
(I1
I0
tp1592
F0.9229904940696524
s(I0
I2
tp1593
F0.30491169414793684
ss(g1
S' XOO XOX '
p1594
tp1595
(dp1596
(I0
I0
tp1597
F0.09296504838288411
s(I1
I1
tp1598
F0.2628917915058109
s(I2
I2
tp1599
F0.46134478719092165
ss(g1
S'OXOOXOX  '
p1600
tp1601
(dp1602
g1422
F0.11597242127274332
sg1423
F0.2860954955845967
ss(g1
S'O O X OXX'
p1603
tp1604
(dp1605
g131
F0.8996582563259524
sg132
F0.2500414973336399
sg136
F0.4011544677108301
ss(g1
S'   O  X O'
p1606
tp1607
(dp1608
g760
F0.846839220497125
sg1456
F0.9043594596383653
s(I0
I0
tp1609
F0.8462478215312871
s(I2
I1
tp1610
F0.06624214491905978
sg1457
F0.7063734951184704
sg761
F0.8254319105810016
ss(g1
S'O  X  O  '
p1611
tp1612
(dp1613
(I0
I1
tp1614
F0.036348747446353746
s(I1
I2
tp1615
F0.990068971453195
s(I2
I1
tp1616
F0.8862751579864875
s(I1
I1
tp1617
F0.6782487821980187
s(I2
I2
tp1618
F0.2175237854684644
s(I0
I2
tp1619
F0.7170237631103
ss(g1
S'  X OO   '
p1620
tp1621
(dp1622
(I0
I1
tp1623
F0.15468889967493438
s(I0
I0
tp1624
F0.4495323493688823
s(I2
I1
tp1625
F0.05701271362369331
s(I2
I0
tp1626
F0.7914745337813793
s(I2
I2
tp1627
F0.19110704886482643
s(I1
I0
tp1628
F0.20534760723456247
ss(g1
S'OXO XOXO '
p1629
tp1630
(dp1631
g839
F0.12654245110769258
sg842
F0.08775431880586326
ss(g1
S' XO  OXOX'
p1632
tp1633
(dp1634
g792
F0.8822390758477021
sg793
F0.2278767733792324
sg794
F0.24298126117115515
ss(g1
S' O  X O  '
p1635
tp1636
(dp1637
(I1
I2
tp1638
F0.9516300821131286
s(I0
I0
tp1639
F0.9503666817838577
s(I2
I1
tp1640
F0.09402804068186654
s(I2
I2
tp1641
F0.45556307704044896
s(I1
I0
tp1642
F0.36705543654499806
s(I0
I2
tp1643
F0.22405695234332001
ss(g1
S'   O  X  '
p1644
tp1645
(dp1646
(I0
I1
tp1647
F0.04977315488679357
s(I1
I2
tp1648
F0.6765580564851248
s(I0
I0
tp1649
F0.6322473321840933
s(I2
I1
tp1650
F0.7317247274544368
s(I1
I1
tp1651
F0.5880082486456101
s(I2
I2
tp1652
F0.45986768078135776
s(I0
I2
tp1653
F0.3424564510366087
ss(g1
S' O  O   X'
p1654
tp1655
(dp1656
(I1
I2
tp1657
F0.8919600824558669
s(I0
I0
tp1658
F0.138208384449939
s(I2
I1
tp1659
F0.2594800327677348
s(I2
I0
tp1660
F0.31875990996676007
s(I1
I0
tp1661
F0.9479224925299747
s(I0
I2
tp1662
F0.307005253483258
ss(g1
S'O O   XX '
p1663
tp1664
(dp1665
(I0
I1
tp1666
F0.973923102840971
s(I1
I2
tp1667
F0.7239017493319468
s(I1
I0
tp1668
F0.5178296721483592
s(I1
I1
tp1669
F0.7111976509619232
s(I2
I2
tp1670
F0.908618806167461
ss(g1
S'OO  XXXOO'
p1671
tp1672
(dp1673
g517
F0.3997974085919046
sg519
F0.9755237438155174
ss(g1
S' OXOX OOX'
p1674
tp1675
(dp1676
g671
F0.9568447194903344
sg673
F0.6433317619326088
ss(g1
S' O  X  O '
p1677
tp1678
(dp1679
g671
F0.9577342246936472
sg673
F0.3780392056731656
sg672
F0.6806113030529161
s(I2
I2
tp1680
F0.7275407220072232
s(I1
I0
tp1681
F0.4975260879514134
sg674
F0.44526161793978203
ss(g1
S'OO  XX O '
p1682
tp1683
(dp1684
(I2
I0
tp1685
F0.44295039708766926
s(I1
I0
tp1686
F0.31138066627375427
s(I0
I2
tp1687
F0.07096985807400669
s(I2
I2
tp1688
F0.3702313678110861
ss(g1
S'X OO  XOX'
p1689
tp1690
(dp1691
(I0
I1
tp1692
F0.915055305393762
s(I1
I2
tp1693
F0.05188529611553527
s(I1
I1
tp1694
F0.5718512351037014
ss(g1
S'OOX  XXOO'
p1695
tp1696
(dp1697
(I1
I0
tp1698
F0.21182238762013272
s(I1
I1
tp1699
F0.9678935812140907
ss(g1
S'OX  X   O'
p1700
tp1701
(dp1702
(I1
I2
tp1703
F0.26327508061150806
s(I2
I0
tp1704
F0.768246046122526
sg1514
F0.5846568471971966
sg1515
F0.5965004316481289
sg1516
F0.45804123225700444
ss(g1
S'   O XX O'
p1705
tp1706
(dp1707
(I0
I1
tp1708
F0.5774471700319928
s(I0
I0
tp1709
F0.33740111902561354
s(I0
I2
tp1710
F0.5011540834901744
s(I2
I1
tp1711
F0.7891301572187388
s(I1
I1
tp1712
F0.04952506479097629
ss(g1
S'  OOXX O '
p1713
tp1714
(dp1715
g92
F0.4342971334489799
s(I2
I0
tp1716
F0.02632054992640831
s(I0
I0
tp1717
F0.6295934775009968
sg93
F0.9632966059846166
ss(g1
S'OX XXOOOX'
p1718
tp1719
(dp1720
(I0
I2
tp1721
F0.1641772261284289
ss(g1
S' O  XOX O'
p1722
tp1723
(dp1724
(I1
I0
tp1725
F0.6755595798841628
s(I0
I0
tp1726
F0.6611312875477875
s(I0
I2
tp1727
F0.9999954848572643
s(I2
I1
tp1728
F0.38345863393419
ss(g1
S' XO X OOX'
p1729
tp1730
(dp1731
(I1
I2
tp1732
F0.7404549754901707
s(I1
I0
tp1733
F0.7335038017026564
s(I0
I0
tp1734
F0.9068334682941087
ss(g1
S'OO OXX OX'
p1735
tp1736
(dp1737
g1685
F0.1902389406240106
sg1687
F0.9290685986677116
ss(g1
S' OOO XXX '
p1738
tp1739
(dp1740
(I0
I0
tp1741
F0.031008995087738245
s(I1
I1
tp1742
F0.763925721599219
s(I2
I2
tp1743
F0.9193190391566559
ss(g1
S'X O X  OO'
p1744
tp1745
(dp1746
(I0
I1
tp1747
F0.6454455607853137
s(I1
I2
tp1748
F0.9399268879437873
s(I1
I0
tp1749
F0.6935143852345156
s(I2
I0
tp1750
F0.2966496417252169
ss(g323
S'X    OO X'
p1751
tp1752
(dp1753
(I0
I1
tp1754
F0.5912200825511055
s(I1
I0
tp1755
F0.2327210267568437
s(I0
I2
tp1756
F0.45447597348788793
s(I2
I1
tp1757
F0.7079054099971245
s(I1
I1
tp1758
F0.960335462103744
ss(g1
S'XO O X  O'
p1759
tp1760
(dp1761
(I2
I0
tp1762
F0.7832976265341501
s(I0
I2
tp1763
F0.23052481220651488
s(I2
I1
tp1764
F0.12198624176794426
s(I1
I1
tp1765
F0.20818368989950264
ss(g1
S'      O X'
p1766
tp1767
(dp1768
g804
F0.9863504050388646
sg805
F0.833723308158042
s(I0
I0
tp1769
F0.5807673047685232
sg807
F0.6121235513740979
sg808
F0.3608949323966014
s(I1
I0
tp1770
F0.5358489662721176
sg806
F0.11595623564017932
ss(g1
S'O  O XX  '
p1771
tp1772
(dp1773
(I0
I1
tp1774
F0.739079262481941
sg169
F0.007788153012416754
s(I0
I2
tp1775
F0.9682098751529113
sg168
F0.8342435943793441
sg167
F0.9913397034992607
ss(g1
S'XOOXOX XO'
p1776
tp1777
(dp1778
g534
F0.9153488317744704
ss(g1
S'O  OXX OX'
p1779
tp1780
(dp1781
g1204
F0.290129595310167
sg1208
F0.7720905265301946
sg1206
F0.46110896379082866
ss(g1
S' OX XO O '
p1782
tp1783
(dp1784
(I2
I0
tp1785
F0.999528170313388
s(I1
I0
tp1786
F0.5637193100937239
s(I0
I0
tp1787
F0.45633799566185784
s(I2
I2
tp1788
F0.5547144216577068
ss(g1
S'OXO  O X '
p1789
tp1790
(dp1791
(I2
I0
tp1792
F0.08887727655035405
s(I1
I0
tp1793
F0.42466359622627914
s(I1
I1
tp1794
F0.5347024111507627
s(I2
I2
tp1795
F0.5064655807778596
ss(g323
S'X  X  OO '
p1796
tp1797
(dp1798
(I0
I1
tp1799
F0.13461233471328127
s(I1
I2
tp1800
F0.7107498440451062
s(I0
I2
tp1801
F0.6456828007181226
s(I1
I1
tp1802
F0.641198364347695
s(I2
I2
tp1803
F0.2703967652836613
ss(g1
S' O  X OOX'
p1804
tp1805
(dp1806
(I1
I2
tp1807
F0.048536661569321016
sg1592
F0.049510080064404716
s(I0
I0
tp1808
F0.46458252578559656
sg1593
F0.7326340619905908
ss(g1
S' O X   O '
p1809
tp1810
(dp1811
(I1
I2
tp1812
F0.42358911256554177
s(I0
I0
tp1813
F0.21965825131839867
s(I1
I1
tp1814
F0.015123312596614036
s(I2
I0
tp1815
F0.13763702502246988
s(I2
I2
tp1816
F0.8253492418661702
s(I0
I2
tp1817
F0.9848950389743795
ss(g1
S'O OXOX OX'
p1818
tp1819
(dp1820
(I0
I1
tp1821
F0.265683957381047
s(I2
I0
tp1822
F0.22422822334672454
ss(g1
S'OO XX   O'
p1823
tp1824
(dp1825
(I1
I2
tp1826
F0.0924089309378946
s(I2
I0
tp1827
F0.10753737029026966
s(I0
I2
tp1828
F0.1519820713880884
s(I2
I1
tp1829
F0.4915136246237519
ss(g1
S'XOXO OXXO'
p1830
tp1831
(dp1832
(I1
I1
tp1833
F0.9996562294350185
ss(g1
S'OOX XO XO'
p1834
tp1835
(dp1836
(I2
I0
tp1837
F0.9024276177777529
s(I1
I0
tp1838
F0.5882551340929572
ss(g1
S'OOX  OXOX'
p1839
tp1840
(dp1841
(I1
I0
tp1842
F0.493669320692637
s(I1
I1
tp1843
F0.3911767505807371
ss(g1
S'  OO XOX '
p1844
tp1845
(dp1846
(I0
I1
tp1847
F0.49931764590059924
sg1466
F0.3640937106011837
s(I1
I1
tp1848
F0.8414698525407285
sg1467
F0.7382659292954435
ss(g1
S'OXOXXO OX'
p1849
tp1850
(dp1851
(I2
I0
tp1852
F0.6732150774522079
ss(g1
S'O OOX   X'
p1853
tp1854
(dp1855
(I0
I1
tp1856
F0.6814929448007764
s(I1
I2
tp1857
F0.5581213112775296
s(I2
I1
tp1858
F0.30682504976679326
s(I2
I0
tp1859
F0.809983840024795
ss(g1
S'OO XXOXOX'
p1860
tp1861
(dp1862
g1231
F0.9599960796725933
ss(g1
S'OO XXO   '
p1863
tp1864
(dp1865
g403
F0.9376138232639974
sg405
F0.7013307265560298
sg401
F0.6394922373894943
sg404
F0.26553414770948647
ss(g1
S'OOXX  O X'
p1866
tp1867
(dp1868
(I1
I2
tp1869
F0.41125408183858403
s(I1
I1
tp1870
F0.13466907658684413
s(I2
I1
tp1871
F0.5606244417352149
ss(g1
S'X   O O X'
p1872
tp1873
(dp1874
g226
F0.9191026625139509
s(I1
I2
tp1875
F0.5184851485542628
sg227
F0.39881556537780194
sg228
F0.12340451970522892
s(I2
I1
tp1876
F0.4127010517961949
ss(g1
S'OOX XO OX'
p1877
tp1878
(dp1879
(I2
I0
tp1880
F0.9687992717639546
s(I1
I0
tp1881
F0.5013957741615055
ss(g1
S'OX O   OX'
p1882
tp1883
(dp1884
g574
F0.795323535067436
sg575
F0.02909638956664584
s(I0
I2
tp1885
F0.7117614717659284
s(I1
I1
tp1886
F0.7877271450691079
ss(g1
S'OO X  O X'
p1887
tp1888
(dp1889
(I1
I2
tp1890
F0.29327294741598287
s(I0
I2
tp1891
F0.30526938709233
s(I2
I1
tp1892
F0.44400296440543796
s(I1
I1
tp1893
F0.7329053262131796
ss(g1
S'XO OOX XO'
p1894
tp1895
(dp1896
(I2
I0
tp1897
F0.49618566465504044
s(I0
I2
tp1898
F0.09399190509455746
ss(g1
S'OXOOX XO '
p1899
tp1900
(dp1901
(I1
I2
tp1902
F0.533370585804979
s(I2
I2
tp1903
F0.6488033230618852
ss(g1
S' X  XOOOX'
p1904
tp1905
(dp1906
(I1
I0
tp1907
F0.8834092232969842
s(I0
I0
tp1908
F0.9949563531991573
s(I0
I2
tp1909
F0.85181433252517
ss(g1
S' X X OO  '
p1910
tp1911
(dp1912
(I2
I2
tp1913
F0.9049048450220076
s(I0
I0
tp1914
F0.013847758807201571
s(I0
I2
tp1915
F0.5866332497441855
s(I2
I1
tp1916
F0.7615877353068417
s(I1
I1
tp1917
F0.4002862753264691
ss(g1
S'OOX XO  X'
p1918
tp1919
(dp1920
(I2
I0
tp1921
F0.6595991028922403
s(I1
I0
tp1922
F0.13411808124757785
s(I2
I1
tp1923
F0.5430754422915118
ss(g1
S'XX X OO O'
p1924
tp1925
(dp1926
g696
F0.8350143614676414
sg697
F0.9126588872421314
sg698
F0.3188149604258068
ss(g1
S'X     OOX'
p1927
tp1928
(dp1929
(I0
I1
tp1930
F0.8300221982187348
s(I1
I2
tp1931
F0.9122771479999224
sg962
F0.6023957059661544
sg963
F0.21121560341273793
sg198
F0.07499682775582661
ss(g1
S'X XXOOOOX'
p1932
tp1933
(dp1934
g379
F0.9697664747574783
ss(g1
S'OOX  XO  '
p1935
tp1936
(dp1937
(I1
I0
tp1938
F0.3163100496665642
s(I1
I1
tp1939
F0.6242675887356737
s(I2
I1
tp1940
F0.0059022068113666615
s(I2
I2
tp1941
F0.9911341269242396
ss(g1
S'OXOOXXX O'
p1942
tp1943
(dp1944
(I2
I1
tp1945
F0.9730552993713154
ss(g1
S'XXOO X OO'
p1946
tp1947
(dp1948
(I2
I0
tp1949
F0.1814761276452318
s(I1
I1
tp1950
F0.9413972177679459
ss(g1
S'O X O XOX'
p1951
tp1952
(dp1953
(I0
I1
tp1954
F0.9941857882048387
s(I1
I2
tp1955
F0.6478943373331193
s(I1
I0
tp1956
F0.6084004782642922
ss(g1
S'XO  O   X'
p1957
tp1958
(dp1959
(I1
I2
tp1960
F0.0722091172042616
s(I2
I0
tp1961
F0.44734694745716497
s(I1
I0
tp1962
F0.7578237757841568
s(I0
I2
tp1963
F0.6259230779890713
s(I2
I1
tp1964
F0.19619611225196887
ss(g1
S'   X  O O'
p1965
tp1966
(dp1967
(I0
I1
tp1968
F0.6726743020310195
sg1509
F0.5047603805644828
s(I0
I0
tp1969
F0.7343773975042138
s(I2
I1
tp1970
F0.49687525062527216
s(I1
I1
tp1971
F0.3648948275462701
sg1510
F0.7682362090716862
ss(g1
S'  OOXXOOX'
p1972
tp1973
(dp1974
(I0
I1
tp1975
F0.36049440071347916
s(I0
I0
tp1976
F0.924204945565177
ss(g1
S'O OXO  X '
p1977
tp1978
(dp1979
(I0
I1
tp1980
F0.7303229322986831
s(I1
I2
tp1981
F0.8167111036321538
s(I2
I2
tp1982
F0.6972738181612083
s(I2
I0
tp1983
F0.03951470212357566
ss(g1
S'   O XOX '
p1984
tp1985
(dp1986
(I0
I1
tp1987
F0.6645968259698657
sg1599
F0.35165078879400025
sg1597
F0.5044983668147334
s(I0
I2
tp1988
F0.32577636875136684
sg1598
F0.8343331116752382
ss(g323
S'  OX    O'
p1989
tp1990
(dp1991
(I0
I1
tp1992
F0.7138896194261207
s(I1
I2
tp1993
F0.6649824911693953
s(I0
I0
tp1994
F0.16128903916710335
s(I2
I1
tp1995
F0.2253231485308308
s(I2
I0
tp1996
F0.6365018455064575
s(I1
I1
tp1997
F0.9603743796473779
ss(g1
S'X   O OOX'
p1998
tp1999
(dp2000
g256
F0.15044010274496944
sg257
F0.1539541408473254
sg260
F0.06630001299416066
sg261
F0.8830083076305008
ss(g1
S' XOOOX   '
p2001
tp2002
(dp2003
g950
F0.9933885926228098
sg948
F0.027104674321250077
sg949
F0.9267168985065671
sg951
F0.32364562348756454
ss(g1
S'   OX X O'
p2004
tp2005
(dp2006
g1647
F0.4500629106807579
sg1648
F0.6621267322399774
sg1649
F0.10848711256541987
sg1653
F0.9518806166631335
sg1650
F0.09543489604842814
ss(g1
S'XXOX OO  '
p2007
tp2008
(dp2009
g155
F0.8418115292048818
s(I2
I1
tp2010
F0.7514194884902801
s(I2
I2
tp2011
F0.4299151831290342
ss(g1
S' OXXOXO O'
p2012
tp2013
(dp2014
g1212
F0.8949786487544698
sg1213
F0.7604260644623779
ss(g1
S'  O  X  O'
p2015
tp2016
(dp2017
(I0
I1
tp2018
F0.0009502103455685251
s(I0
I0
tp2019
F0.321226274114776
s(I2
I1
tp2020
F0.8201233016570366
s(I2
I0
tp2021
F0.8902578862554499
s(I1
I0
tp2022
F0.7418898696100102
s(I1
I1
tp2023
F0.08723962677285757
ss(g1
S' XOXOO X '
p2024
tp2025
(dp2026
(I2
I0
tp2027
F0.06624497738961321
s(I0
I0
tp2028
F0.8145154700490829
s(I2
I2
tp2029
F0.32910979785428474
ss(g1
S' O O XX  '
p2030
tp2031
(dp2032
g121
F0.10713582743954819
s(I0
I0
tp2033
F0.6702892011441373
sg119
F0.6785435929185618
sg120
F0.0574756157657359
s(I1
I1
tp2034
F0.49055613495346273
ss(g1
S'      OX '
p2035
tp2036
(dp2037
g218
F0.032485842145322796
sg219
F0.3152093454454259
sg220
F0.4865538684137155
s(I1
I1
tp2038
F0.47316023224866455
sg222
F0.18615297724290236
s(I1
I0
tp2039
F0.5146234568389655
sg221
F0.27634125529673803
ss(g1
S'  OX  O X'
p2040
tp2041
(dp2042
(I0
I1
tp2043
F0.39022561055265936
s(I1
I2
tp2044
F0.7564432754189722
s(I0
I0
tp2045
F0.08315868341702881
s(I1
I1
tp2046
F0.17132710503820803
s(I2
I1
tp2047
F0.35925179665380613
ss(g1
S'O O  X  X'
p2048
tp2049
(dp2050
(I0
I1
tp2051
F0.23891598415377502
s(I2
I0
tp2052
F0.7286279365899794
s(I1
I0
tp2053
F0.44645523390247477
s(I1
I1
tp2054
F0.800011295533809
s(I2
I1
tp2055
F0.948657088320992
ss(g1
S'XX OO XO '
p2056
tp2057
(dp2058
(I1
I2
tp2059
F0.6054530577645371
s(I0
I2
tp2060
F0.047673218787734895
s(I2
I2
tp2061
F0.7059859147786387
ss(g1
S' XOXX O O'
p2062
tp2063
(dp2064
(I1
I2
tp2065
F0.5431785598951744
s(I0
I0
tp2066
F0.15535069201798535
s(I2
I1
tp2067
F0.9370151800431519
ss(g1
S'OX   O  X'
p2068
tp2069
(dp2070
g1450
F0.481643736229047
sg1451
F0.6394211134259382
sg1452
F0.7622257857708505
s(I2
I1
tp2071
F0.1596099019408418
s(I1
I1
tp2072
F0.48510537695860134
ss(g1
S'OO   XOX '
p2073
tp2074
(dp2075
(I1
I0
tp2076
F0.29261185170913384
s(I2
I2
tp2077
F0.2933904648727933
s(I0
I2
tp2078
F0.9298852930291673
s(I1
I1
tp2079
F0.8277228376920999
ss(g1
S'OO OXXXOX'
p2080
tp2081
(dp2082
g119
F0.9439400489612517
ss(g1
S' X  OXOXO'
p2083
tp2084
(dp2085
(I1
I0
tp2086
F0.1957330908292092
s(I0
I0
tp2087
F0.011661257496863642
s(I0
I2
tp2088
F0.41287005443202685
ss(g1
S'X  X OOXO'
p2089
tp2090
(dp2091
(I0
I1
tp2092
F0.039386390420998674
s(I0
I2
tp2093
F0.9716853021843666
s(I1
I1
tp2094
F0.5965538307035045
ss(g1
S'XX OOXXOO'
p2095
tp2096
(dp2097
g767
F0.9200115967490357
ss(g1
S'O X XOO X'
p2098
tp2099
(dp2100
(I0
I1
tp2101
F0.539433643848712
sg1489
F0.14908205669681807
s(I2
I1
tp2102
F0.276440143001077
ss(g1
S'O OX XXOO'
p2103
tp2104
(dp2105
g1188
F0.2193182917550892
sg1193
F0.37201857603387545
ss(g323
S'O  X XO  '
p2106
tp2107
(dp2108
(I0
I1
tp2109
F0.9006917692908789
sg490
F0.385535034355752
sg488
F0.4814318160250717
sg489
F0.28007508357941635
s(I2
I2
tp2110
F0.9832338180789404
ss(g1
S' XOOXXO O'
p2111
tp2112
(dp2113
(I0
I0
tp2114
F0.055317577383440786
s(I2
I1
tp2115
F0.8634776019639537
ss(g1
S'X    O OX'
p2116
tp2117
(dp2118
(I0
I1
tp2119
F0.009260339079292357
s(I2
I0
tp2120
F0.7275402315156073
s(I1
I0
tp2121
F0.15305567879828574
s(I0
I2
tp2122
F0.8650339935359546
s(I1
I1
tp2123
F0.6401007643018375
ss(g1
S'O XX O  O'
p2124
tp2125
(dp2126
g440
F0.7612949478615769
sg444
F0.1511129763429021
sg443
F0.8146088740810551
sg442
F0.38024684529068586
ss(g1
S'     OOXX'
p2127
tp2128
(dp2129
(I0
I1
tp2130
F0.9879053721734659
s(I1
I0
tp2131
F0.6607282654458748
s(I0
I0
tp2132
F0.42922358077213585
s(I0
I2
tp2133
F0.47997621703416393
s(I1
I1
tp2134
F0.431491378549579
ss(g1
S'    X   O'
p2135
tp2136
(dp2137
(I0
I1
tp2138
F0.2534772797662117
sg125
F0.6027340830969612
s(I0
I0
tp2139
F0.7592257980021788
sg127
F0.693358489500188
s(I2
I0
tp2140
F0.022234101452067945
s(I1
I0
tp2141
F0.6699694511697621
sg126
F0.25453164045471766
ss(g1
S'XOX  O O '
p2142
tp2143
(dp2144
g1520
F0.34817754337467766
sg1521
F0.9720914769372933
s(I1
I1
tp2145
F0.4709424701372298
s(I2
I2
tp2146
F0.722692514971467
ss(g1
S'  OOXXO  '
p2147
tp2148
(dp2149
g304
F0.9581873121855653
sg306
F0.5228791176920762
sg307
F0.8327835445846066
sg309
F0.6343803075597031
ss(g1
S'XO O  XXO'
p2150
tp2151
(dp2152
g883
F0.06077570057701487
sg888
F0.8529861322160239
sg885
F0.13263150945571622
ss(g1
S'OXO      '
p2153
tp2154
(dp2155
(I1
I2
tp2156
F0.5146508801243529
s(I2
I1
tp2157
F0.5478952331223716
sg1792
F0.2432338857920634
sg1795
F0.9114801158653345
sg1793
F0.9617393131617733
sg1794
F0.505538773755668
ss(g1
S'X O    O '
p2158
tp2159
(dp2160
(I0
I1
tp2161
F0.6861261833564563
s(I1
I2
tp2162
F0.9918410399029475
s(I2
I0
tp2163
F0.0766776323760473
s(I2
I2
tp2164
F0.404346085201738
s(I1
I0
tp2165
F0.0009434309823539433
s(I1
I1
tp2166
F0.08015112325757978
ss(g1
S'XOOX  OXO'
p2167
tp2168
(dp2169
(I1
I2
tp2170
F0.4640242894279799
s(I1
I1
tp2171
F0.7953316965555637
ss(g1
S'XOXXXOOO '
p2172
tp2173
(dp2174
g13
F0.9025745840153434
ss(g323
S'   X   OO'
p2175
tp2176
(dp2177
g327
F0.6487468532690057
sg328
F0.4114740204448374
sg329
F0.6728551425709137
sg334
F0.9352400557266835
sg332
F0.5754559148516658
sg331
F0.04367397929878436
ss(g1
S'OXOX   XO'
p2178
tp2179
(dp2180
(I1
I2
tp2181
F0.22673193602003072
s(I2
I0
tp2182
F0.8405432807672845
s(I1
I1
tp2183
F0.2756063751822627
ss(g1
S'OO X OOXX'
p2184
tp2185
(dp2186
g1891
F0.7785941218354758
sg1893
F0.9590954160001505
ss(g1
S'   O XO  '
p2187
tp2188
(dp2189
(I0
I1
tp2190
F0.32093699136018117
s(I0
I0
tp2191
F0.5932325654960434
s(I2
I1
tp2192
F0.048523456553638766
s(I1
I1
tp2193
F0.657770170701898
s(I2
I2
tp2194
F0.7837610070427902
s(I0
I2
tp2195
F0.8378296014052613
ss(g1
S'O OX  X O'
p2196
tp2197
(dp2198
g1188
F0.9447660110544033
sg1189
F0.6059455732223115
sg1193
F0.8695154992009796
sg1191
F0.4210428595478709
ss(g1
S'OOXX XXOO'
p2199
tp2200
(dp2201
g1252
F0.9678909755419675
ss(g1
S'X X OO   '
p2202
tp2203
(dp2204
(I0
I1
tp2205
F0.9797224342786004
s(I2
I0
tp2206
F0.01936984548157239
s(I1
I0
tp2207
F0.10930236534550564
s(I2
I1
tp2208
F0.5477061484257323
s(I2
I2
tp2209
F0.901121620505605
ss(g1
S'OO     XX'
p2210
tp2211
(dp2212
(I1
I2
tp2213
F0.9531824904068208
s(I2
I0
tp2214
F0.29816478959859893
sg394
F0.030003732434168096
sg395
F0.9913190088557151
sg396
F0.440482775039966
ss(g1
S'   OO   X'
p2215
tp2216
(dp2217
(I0
I1
tp2218
F0.2076278967285481
sg499
F0.9788387028878655
s(I0
I0
tp2219
F0.13933595933352483
s(I2
I1
tp2220
F0.9135150779613019
s(I2
I0
tp2221
F0.34924377068216905
sg500
F0.36757424131316463
ss(g1
S' O     OX'
p2222
tp2223
(dp2224
(I1
I2
tp2225
F0.7350757354325237
s(I0
I0
tp2226
F0.666167691512146
s(I1
I1
tp2227
F0.062493975055518236
s(I2
I0
tp2228
F0.268756653808617
s(I1
I0
tp2229
F0.8130594979273532
s(I0
I2
tp2230
F0.3104251546223106
ss(g1
S'O XO  XXO'
p2231
tp2232
(dp2233
(I0
I1
tp2234
F0.14626405146427313
s(I1
I2
tp2235
F0.21316637998815935
s(I1
I1
tp2236
F0.059805568540962084
ss(g1
S' O  X   O'
p2237
tp2238
(dp2239
(I1
I2
tp2240
F0.12061688104769719
s(I0
I0
tp2241
F0.05681145253764852
sg933
F0.27466952471331874
s(I2
I0
tp2242
F0.1905085836145547
sg932
F0.9105442502118847
s(I0
I2
tp2243
F0.45295019247867985
ss(g1
S'   X    O'
p2244
tp2245
(dp2246
(I0
I1
tp2247
F0.9120078532635595
sg1249
F0.5171083678809124
sg1251
F0.16583249028702784
sg1253
F0.5970766811003809
sg1252
F0.741514693306629
sg1250
F0.9062442081148415
s(I0
I2
tp2248
F0.3301731769908852
ss(g1
S'OX  X O  '
p2249
tp2250
(dp2251
g1179
F0.18459580766578154
sg1183
F0.4033038948793024
sg1184
F0.3989059500590668
sg1181
F0.8708613243555579
sg1182
F0.6002762933582485
ss(g1
S'XO XOX  O'
p2252
tp2253
(dp2254
g534
F0.10098269868400178
sg532
F0.4634286935019497
sg533
F0.2739826616839458
ss(g1
S'XOOO XOXX'
p2255
tp2256
(dp2257
g321
F0.9551192129297994
ss(g1
S'OO  X O X'
p2258
tp2259
(dp2260
g1638
F0.3661845783419312
sg1642
F0.05450512792423923
sg1643
F0.7967889407174173
sg1640
F0.08092793394758002
ss(g1
S'   O O  X'
p2261
tp2262
(dp2263
g995
F0.8505439032172697
sg996
F0.5184838318638162
sg998
F0.026435276124105678
s(I1
I1
tp2264
F0.2569532861935091
s(I2
I0
tp2265
F0.3779246944146609
sg997
F0.8195421351037525
ss(g1
S'  XOO   X'
p2266
tp2267
(dp2268
g53
F0.49883744112541295
sg54
F0.8057876927480371
sg55
F0.17969152761647555
sg56
F0.7788146430543015
sg57
F0.08332401141017409
ss(g1
S'OX    O X'
p2269
tp2270
(dp2271
(I1
I2
tp2272
F0.9324422876266105
s(I1
I0
tp2273
F0.08015515263187711
sg1721
F0.9682985848494227
s(I2
I1
tp2274
F0.5531361394356386
s(I1
I1
tp2275
F0.3427486600357632
ss(g1
S'X OO XXO '
p2276
tp2277
(dp2278
g1117
F0.34120653523633704
s(I1
I1
tp2279
F0.7515179243084877
s(I2
I2
tp2280
F0.5380360580548171
ss(g1
S'XXOO X O '
p2281
tp2282
(dp2283
(I2
I0
tp2284
F0.013690561566708892
s(I1
I1
tp2285
F0.7315079158878298
s(I2
I2
tp2286
F0.17320036241105718
ss(g1
S'  OXOOXX '
p2287
tp2288
(dp2289
(I0
I1
tp2290
F0.5926726511075097
s(I0
I0
tp2291
F0.23038283878559385
s(I2
I2
tp2292
F0.9234731700266956
ss(g1
S'   XOXO  '
p2293
tp2294
(dp2295
g1083
F0.9519975810945678
s(I0
I0
tp2296
F0.6910193811736316
s(I0
I2
tp2297
F0.2645328108506514
sg1084
F0.7374287583706071
sg1085
F0.27538227742353816
ss(g1
S'   O     '
p2298
tp2299
(dp2300
(I0
I1
tp2301
F0.8894522769824972
sg473
F0.7877446554982035
sg474
F0.554225373761669
sg475
F0.03559172512202635
sg478
F0.8422296182768867
sg476
F0.8694482448061144
sg477
F0.2016372192073358
s(I0
I2
tp2302
F0.33447727938555005
ss(g1
S'O   XO  X'
p2303
tp2304
(dp2305
(I0
I1
tp2306
F0.35654397260449033
sg1921
F0.40912003968520594
sg1922
F0.6448747510604206
s(I0
I2
tp2307
F0.17750307976570878
sg1923
F0.09761561864137847
ss(g1
S'X      O '
p2308
tp2309
(dp2310
g1299
F0.8041180748474946
sg1300
F0.6637547429116021
s(I1
I1
tp2311
F0.5794990648981173
s(I2
I0
tp2312
F0.2619176762054467
sg1303
F0.5813983263259181
sg1301
F0.5713390078909663
sg1302
F0.7254306419727571
ss(g1
S'  O   OXX'
p2313
tp2314
(dp2315
g131
F0.8882685946412046
sg132
F0.2088919731500487
sg136
F0.5785470021987065
sg133
F0.3884451784818127
sg137
F0.6926655824882045
ss(g1
S' OO  XO X'
p2316
tp2317
(dp2318
g648
F0.59221836128107
sg645
F0.7983032531394478
sg647
F0.3743797694820895
sg646
F0.3973835547030947
ss(g1
S'O      X '
p2319
tp2320
(dp2321
g1666
F0.760770465231787
sg1667
F0.10111218085574825
sg1669
F0.3416129312888473
s(I2
I0
tp2322
F0.14677039504871214
sg1670
F0.06687038404429746
sg1668
F0.8172291627208244
s(I0
I2
tp2323
F0.25392778919769443
ss(g1
S'OOXXXO  O'
p2324
tp2325
(dp2326
g444
F0.9553708968554201
sg442
F0.6230401055480975
ss(g1
S'XO XOXO O'
p2327
tp2328
(dp2329
(I0
I2
tp2330
F0.9773420199920895
s(I2
I1
tp2331
F0.18806454607707235
ss(g1
S'OX X OO X'
p2332
tp2333
(dp2334
g108
F0.48367735591744376
sg104
F0.9317316484684739
sg105
F0.37934921809982036
ss(g1
S'O    XO  '
p2335
tp2336
(dp2337
g1121
F0.900142812330961
sg1124
F0.2798921172815272
s(I1
I1
tp2338
F0.641087413872221
s(I2
I2
tp2339
F0.4830544727165602
sg1122
F0.047311340179037265
sg1123
F0.244305680773645
ss(g1
S'XO XOXOXO'
p2340
tp2341
(dp2342
g1354
F0.7373638985050694
ss(g1
S' OXOOX   '
p2343
tp2344
(dp2345
g1002
F0.9089540776400213
s(I0
I0
tp2346
F0.8341211539074435
s(I2
I1
tp2347
F0.07066208752599534
sg1003
F0.48643623386638934
ss(g1
S'X O XOOX '
p2348
tp2349
(dp2350
g45
F0.9370405718586597
sg46
F0.1462268796970666
sg49
F0.5759715751920602
ss(g1
S' X OO    '
p2351
tp2352
(dp2353
(I1
I2
tp2354
F0.7135468698414601
sg1559
F0.964826986259789
sg1560
F0.5476871830407849
s(I2
I0
tp2355
F0.5418311344056151
s(I2
I2
tp2356
F0.690424968805448
s(I0
I2
tp2357
F0.9021710505576521
ss(g1
S'O OXOXX  '
p2358
tp2359
(dp2360
g1584
F0.22743391578766436
sg1587
F0.4238740533661338
sg1588
F0.3088476560575435
ss(g1
S' O   O XX'
p2361
tp2362
(dp2363
g1154
F0.9780161624702095
sg1155
F0.5167334073697988
sg1151
F0.6492891255128356
sg1156
F0.029613009531725187
sg1153
F0.03994750554671811
ss(g1
S'X   OX O '
p2364
tp2365
(dp2366
g702
F0.8452804666319977
sg705
F0.2733409818752234
sg707
F0.6123284723419224
sg708
F0.9069123907860862
sg706
F0.506331479284176
ss(g1
S' X XXOOO '
p2367
tp2368
(dp2369
g450
F0.4587459739546179
sg455
F0.5161616879503643
sg454
F0.6293934179705187
ss(g1
S'XO O XXOO'
p2370
tp2371
(dp2372
(I0
I2
tp2373
F0.9127704425341336
s(I1
I1
tp2374
F0.24591940851772265
ss(g1
S'XOX XO  O'
p2375
tp2376
(dp2377
g779
F0.05708918694845211
sg712
F0.04312219767616554
sg781
F0.28792297062994143
ss(g1
S' OX OXO  '
p2378
tp2379
(dp2380
g1216
F0.5310201674336953
sg1212
F0.7719041163605818
sg1213
F0.7320673350878172
sg1215
F0.8096745165539168
ss(g1
S'X OOO X X'
p2381
tp2382
(dp2383
g974
F0.14932659486383637
sg975
F0.1353114694360531
sg977
F0.9304184356889061
ss(g1
S'OO XOXO X'
p2384
tp2385
(dp2386
(I0
I2
tp2387
F0.8387173899916741
s(I2
I1
tp2388
F0.40141101398909806
ss(g1
S'XOO O  XX'
p2389
tp2390
(dp2391
(I1
I2
tp2392
F0.46332581374666526
s(I2
I0
tp2393
F0.23997982949667873
s(I1
I0
tp2394
F0.32116783034223484
ss(g1
S'XXOOXXO O'
p2395
tp2396
(dp2397
(I2
I1
tp2398
F0.9237058562562765
ss(g1
S'XOO  X OX'
p2399
tp2400
(dp2401
(I2
I0
tp2402
F0.775731344305691
s(I1
I0
tp2403
F0.8458719885649909
s(I1
I1
tp2404
F0.9595517057068503
ss(g1
S'XXOO  O X'
p2405
tp2406
(dp2407
(I1
I2
tp2408
F0.5679664488265638
s(I1
I1
tp2409
F0.10262687367852075
s(I2
I1
tp2410
F0.9873211156714279
ss(g1
S' OXXOXOXO'
p2411
tp2412
(dp2413
g1269
F0.0902969561414354
ss(g1
S'   O    X'
p2414
tp2415
(dp2416
(I0
I1
tp2417
F0.9401066092108956
s(I1
I2
tp2418
F0.34930409240639315
s(I0
I0
tp2419
F0.2917890064980412
s(I2
I1
tp2420
F0.758126465363648
s(I1
I1
tp2421
F0.7482047693132361
s(I2
I0
tp2422
F0.16592324384336754
s(I0
I2
tp2423
F0.10758103410117026
ss(g1
S'  OXO XOX'
p2424
tp2425
(dp2426
(I0
I1
tp2427
F0.3519878865931315
s(I1
I2
tp2428
F0.259797540798792
s(I0
I0
tp2429
F0.04811765948428626
ss(g1
S' O O X XO'
p2430
tp2431
(dp2432
g1897
F0.6679545213831547
s(I0
I0
tp2433
F0.8650123729605187
sg1898
F0.7073147167391027
s(I1
I1
tp2434
F0.10889648096226434
ss(g1
S'  X OOO X'
p2435
tp2436
(dp2437
g1623
F0.45672278102681263
sg1628
F0.8899263274298493
sg1624
F0.2830369130193232
sg1625
F0.9379631425800853
ss(g1
S'  X  XO O'
p2438
tp2439
(dp2440
g1268
F0.7635128576421787
s(I1
I0
tp2441
F0.34815247183801956
sg1269
F0.9128537962161116
s(I1
I1
tp2442
F0.3241130901357774
sg1270
F0.3384353259445675
ss(g1
S' XO  OO X'
p2443
tp2444
(dp2445
(I1
I0
tp2446
F0.6481417138552358
s(I0
I0
tp2447
F0.6964039164294149
s(I1
I1
tp2448
F0.7807882262705387
s(I2
I1
tp2449
F0.6430477539382511
ss(g1
S'O  OX    '
p2450
tp2451
(dp2452
(I0
I1
tp2453
F0.11216278815943836
s(I1
I2
tp2454
F0.497119691552399
s(I2
I1
tp2455
F0.6268387141430415
s(I2
I0
tp2456
F0.0831799965918113
s(I2
I2
tp2457
F0.14345879037748321
s(I0
I2
tp2458
F0.5048612011553768
ss(g1
S'OO OXX X '
p2459
tp2460
(dp2461
g344
F0.9880294213674904
sg820
F0.6365742816245344
sg819
F0.9341401091506316
ss(g1
S' O O   X '
p2462
tp2463
(dp2464
(I1
I2
tp2465
F0.6584597268787636
s(I0
I0
tp2466
F0.37833999752741554
s(I1
I1
tp2467
F0.3763708307301352
s(I2
I0
tp2468
F0.14861816500610725
s(I2
I2
tp2469
F0.32695740438489906
s(I0
I2
tp2470
F0.029909040012751742
ss(g1
S'X  OO OX '
p2471
tp2472
(dp2473
g209
F0.4464318009722321
sg210
F0.5661259320825315
sg214
F0.11863298045143944
sg213
F0.055151746037253035
ss(g1
S'OX O    X'
p2474
tp2475
(dp2476
(I1
I2
tp2477
F0.8436962364753865
s(I2
I0
tp2478
F0.8360720360937796
s(I0
I2
tp2479
F0.5000791139596654
s(I2
I1
tp2480
F0.5259320394109711
s(I1
I1
tp2481
F0.5014033863190457
ss(g1
S'XO O OOXX'
p2482
tp2483
(dp2484
g2470
F0.8172931093546265
sg2467
F0.9638000972079028
ss(g1
S'    XO OX'
p2485
tp2486
(dp2487
(I0
I1
tp2488
F0.6553425582983242
sg1852
F0.23479045379214347
s(I1
I0
tp2489
F0.08726399403090002
s(I0
I0
tp2490
F0.9997979232904936
s(I0
I2
tp2491
F0.7155546593411527
ss(g1
S'O    X O '
p2492
tp2493
(dp2494
(I0
I1
tp2495
F0.9688404795571445
sg800
F0.6885850575023157
s(I2
I0
tp2496
F0.578052313866162
s(I2
I2
tp2497
F0.33362029674821647
s(I1
I0
tp2498
F0.3585282916240886
sg799
F0.6269549893208731
ss(g1
S'OOX  X O '
p2499
tp2500
(dp2501
(I2
I0
tp2502
F0.6546894712780714
sg1698
F0.9193855043550678
sg1699
F0.8943931777534081
s(I2
I2
tp2503
F0.5033004948167303
ss(g1
S'OXX X  OO'
p2504
tp2505
(dp2506
(I1
I2
tp2507
F0.30795925625886367
s(I2
I0
tp2508
F0.09502702598919166
s(I1
I0
tp2509
F0.8662120075301577
ss(g1
S'    O X  '
p2510
tp2511
(dp2512
g417
F0.029776436773685466
sg418
F0.48392995638744185
s(I0
I0
tp2513
F0.04740465790634785
sg420
F0.3690920265233961
sg421
F0.30452867315929577
sg419
F0.25750770109630683
s(I0
I2
tp2514
F0.5173085216077102
ss(g1
S'   O  XO '
p2515
tp2516
(dp2517
(I0
I1
tp2518
F0.2730833038255096
sg141
F0.7631440650601755
s(I0
I0
tp2519
F0.6854321333909021
sg142
F0.9568164971475629
s(I2
I2
tp2520
F0.49897671259400056
s(I0
I2
tp2521
F0.3341044159357365
ss(g1
S' O  XO OX'
p2522
tp2523
(dp2524
g2228
F0.5046600068255855
sg2229
F0.8433217950201832
sg2226
F0.9309177837980832
sg2230
F0.5610248145168821
ss(g1
S'O XXXOOOX'
p2525
tp2526
(dp2527
g1578
F0.11330505338326258
ss(g1
S'XO OXX  O'
p2528
tp2529
(dp2530
g900
F0.48286401377520227
s(I0
I2
tp2531
F0.20302050386669523
s(I2
I1
tp2532
F0.954446127667041
ss(g1
S' XO O  OX'
p2533
tp2534
(dp2535
g37
F0.6707062723641529
sg40
F0.8610670978847013
sg41
F0.5746810290611549
sg38
F0.9141308956399761
ss(g1
S' OOOXXO X'
p2536
tp2537
(dp2538
g645
F0.9813501799123694
sg646
F0.9131561957009433
ss(g1
S'XO OXOXXO'
p2539
tp2540
(dp2541
g888
F0.9639704491844197
ss(g323
S'         '
p2542
tp2543
(dp2544
(I0
I1
tp2545
F0.4117645469775719
s(I1
I2
tp2546
F0.2752046107980919
s(I0
I0
tp2547
F0.7254469109544047
sg277
F0.19190274292278453
sg276
F0.02527715853558299
s(I2
I0
tp2548
F0.35209015479012973
s(I2
I2
tp2549
F0.9578191698740778
sg275
F0.9454213330490229
s(I0
I2
tp2550
F0.5181943886386298
ss(g1
S' O  XO   '
p2551
tp2552
(dp2553
(I0
I0
tp2554
F0.3131238824927334
s(I2
I1
tp2555
F0.5963674850611888
s(I2
I0
tp2556
F0.7341286791836977
s(I2
I2
tp2557
F0.5197582886537357
s(I1
I0
tp2558
F0.4546772493026007
s(I0
I2
tp2559
F0.723760704376577
ss(g1
S'X  O   XO'
p2560
tp2561
(dp2562
g882
F0.015438807003902988
sg883
F0.9000911243319111
sg886
F0.6404787420325369
sg888
F0.4029054666878449
sg885
F0.2205549448023033
ss(g1
S'X  XO O  '
p2563
tp2564
(dp2565
(I0
I1
tp2566
F0.7897365749549539
s(I1
I2
tp2567
F0.21757683103765413
s(I0
I2
tp2568
F0.42342420882387166
s(I2
I1
tp2569
F0.14431070285259684
s(I2
I2
tp2570
F0.10685547611560431
ss(g1
S'  X XOOO '
p2571
tp2572
(dp2573
(I0
I1
tp2574
F0.9040558393431641
s(I1
I0
tp2575
F0.32256789729593605
s(I0
I0
tp2576
F0.5945382246648225
s(I2
I2
tp2577
F0.3546464767800731
ss(g1
S' XXXOOOOX'
p2578
tp2579
(dp2580
g1129
F0.9328266739257162
ss(g1
S' O O  OXX'
p2581
tp2582
(dp2583
g2465
F0.001099198509683097
sg2466
F0.37956811559288484
sg2470
F0.8373554217584368
sg2467
F0.6777385587328043
ss(g1
S'O  OX X  '
p2584
tp2585
(dp2586
(I0
I1
tp2587
F0.9478696013775503
s(I1
I2
tp2588
F0.3712879576434599
s(I0
I2
tp2589
F0.9737921989119144
s(I2
I1
tp2590
F0.957185236785375
s(I2
I2
tp2591
F0.676885662486587
ss(g1
S'XOOX   OX'
p2592
tp2593
(dp2594
(I1
I2
tp2595
F0.3420697993721953
s(I2
I0
tp2596
F0.9578835715651574
s(I1
I1
tp2597
F0.5942841690934336
ss(g1
S'X  OX   O'
p2598
tp2599
(dp2600
(I0
I1
tp2601
F0.7490447154258912
s(I1
I2
tp2602
F0.6382070183902553
sg2531
F0.16804159635202243
sg2532
F0.2641841231142936
sg900
F0.13750003825406887
ss(g1
S'X OO OXX '
p2603
tp2604
(dp2605
(I0
I1
tp2606
F0.7760665019679804
s(I1
I1
tp2607
F0.09458145823676445
s(I2
I2
tp2608
F0.9968885419292255
ss(g1
S'OOXXXOO X'
p2609
tp2610
(dp2611
g1871
F0.5226267525943099
ss(g1
S' OOX     '
p2612
tp2613
(dp2614
(I1
I2
tp2615
F0.9911803372346036
s(I0
I0
tp2616
F0.36979602865240035
s(I2
I1
tp2617
F0.6922390888037492
s(I2
I0
tp2618
F0.6854246730394673
s(I2
I2
tp2619
F0.6277983008807826
s(I1
I1
tp2620
F0.3085447838731168
ss(g1
S' XO  O   '
p2621
tp2622
(dp2623
g2447
F0.95610532431562
sg2449
F0.8888429015207997
s(I2
I0
tp2624
F0.6269547267201546
s(I2
I2
tp2625
F0.5948720574728081
sg2446
F0.7416761064505444
sg2448
F0.10339146649112774
ss(g1
S'OXXO O X '
p2626
tp2627
(dp2628
(I2
I0
tp2629
F0.43031066462649414
sg615
F0.11455950968061379
s(I2
I2
tp2630
F0.3930315965744666
ss(g1
S' OOX  O X'
p2631
tp2632
(dp2633
g2615
F0.9197923338957975
sg2616
F0.33345325263423875
sg2620
F0.4339287701353013
sg2617
F0.0024048277146915265
ss(g1
S'O  O X  X'
p2634
tp2635
(dp2636
g2417
F0.5687158032000399
sg2422
F0.5966158062777398
sg2423
F0.9657296113251953
sg2420
F0.05710100564663434
sg2421
F0.401673277261984
ss(g1
S'XXO O XOO'
p2637
tp2638
(dp2639
(I1
I2
tp2640
F0.9327737238515676
s(I1
I0
tp2641
F0.9719045861001645
ss(g1
S' O   O X '
p2642
tp2643
(dp2644
(I0
I0
tp2645
F0.669711430223706
sg1416
F0.11379476543096279
s(I2
I0
tp2646
F0.925012044589267
s(I2
I2
tp2647
F0.7667188379703805
s(I1
I0
tp2648
F0.7303599578126245
sg1415
F0.9324208884728225
ss(g1
S'XO O XXO '
p2649
tp2650
(dp2651
(I2
I2
tp2652
F0.07360785184133567
s(I0
I2
tp2653
F0.10553248864265741
s(I1
I1
tp2654
F0.44213742976700054
ss(g1
S'XOOO XX O'
p2655
tp2656
(dp2657
(I1
I1
tp2658
F0.7073406724303645
s(I2
I1
tp2659
F0.34406608068596534
ss(g1
S'XXOOO X O'
p2660
tp2661
(dp2662
(I1
I2
tp2663
F0.7622707482140096
s(I2
I1
tp2664
F0.766178703853131
ss(g1
S'XO OXOOX '
p2665
tp2666
(dp2667
g2559
F0.9352528772970254
sg2557
F0.21785876097773538
ss(g1
S'O    X   '
p2668
tp2669
(dp2670
g1584
F0.9096544203416832
sg1587
F0.30651857173827324
sg1586
F0.924854999221839
sg1585
F0.37159499919776806
sg1588
F0.6159361675040049
s(I1
I0
tp2671
F0.3942421226475461
s(I0
I2
tp2672
F0.9307110145865314
ss(g1
S'XOO O  X '
p2673
tp2674
(dp2675
(I1
I2
tp2676
F0.7028974457676211
s(I2
I0
tp2677
F0.1594291159161778
s(I1
I0
tp2678
F0.9333458443849508
s(I2
I2
tp2679
F0.5884651539600154
ss(g1
S'OO X XOXO'
p2680
tp2681
(dp2682
g203
F0.27061216671725175
sg205
F0.5730318077871164
ss(g1
S'X O XO O '
p2683
tp2684
(dp2685
(I0
I1
tp2686
F0.0488350840378019
s(I2
I0
tp2687
F0.5255518610218868
s(I1
I0
tp2688
F0.3836081137837726
s(I2
I2
tp2689
F0.21094964779405145
ss(g1
S'   OO OXX'
p2690
tp2691
(dp2692
g2218
F0.5361351205183527
sg499
F0.8322110112853652
sg2219
F0.7906642757526885
sg500
F0.7714931585908061
ss(g1
S'   X OO X'
p2693
tp2694
(dp2695
g102
F0.09314673004104068
sg103
F0.06626443440836571
sg108
F0.3928244150463688
sg104
F0.23853881198548033
sg105
F0.7860026778075708
ss(g1
S'O OXOX   '
p2696
tp2697
(dp2698
g1821
F0.12236439079407047
sg1822
F0.015433198658781455
s(I2
I1
tp2699
F0.763762760339637
s(I2
I2
tp2700
F0.6509027170359695
ss(g1
S' XO    XO'
p2701
tp2702
(dp2703
(I1
I2
tp2704
F0.024292271603085003
s(I2
I0
tp2705
F0.8258605045623769
s(I1
I0
tp2706
F0.4644687616782516
s(I0
I0
tp2707
F0.8823725432114786
s(I1
I1
tp2708
F0.16452916025132003
ss(g1
S'O OO XXX '
p2709
tp2710
(dp2711
(I0
I1
tp2712
F0.07176058288426457
s(I1
I1
tp2713
F0.9073748145748063
s(I2
I2
tp2714
F0.9681375902994276
ss(g1
S'  OO  XX '
p2715
tp2716
(dp2717
(I0
I1
tp2718
F0.3732723926178888
s(I1
I2
tp2719
F0.7562681029427512
sg1224
F0.458954720987819
sg1225
F0.7807999326025779
sg1226
F0.4794142445322206
ss(g1
S'OOXX  X O'
p2720
tp2721
(dp2722
g1249
F0.9284481341973078
sg1252
F0.6038069291757948
sg1253
F0.51858626240827
ss(g1
S'OXOXX XOO'
p2723
tp2724
(dp2725
g601
F0.9147913419183485
ss(g1
S'O OX O XX'
p2726
tp2727
(dp2728
(I0
I1
tp2729
F0.14832769274243318
s(I2
I0
tp2730
F0.21967365202713085
s(I1
I1
tp2731
F0.9698819655568385
ss(g1
S'  O   XO '
p2732
tp2733
(dp2734
(I0
I1
tp2735
F0.1233176699224805
s(I1
I2
tp2736
F0.249836419424585
sg840
F0.5238520320159864
sg842
F0.11286992695510278
sg839
F0.6489764946315961
sg841
F0.706137887361233
ss(g323
S'X OX XOO '
p2737
tp2738
(dp2739
(I0
I1
tp2740
F0.47678014867213225
s(I1
I1
tp2741
F0.7434352834040254
s(I2
I2
tp2742
F0.7898497895140386
ss(g1
S'  O XOOXX'
p2743
tp2744
(dp2745
g2130
F0.9953389637861716
sg2131
F0.844160095284049
sg2132
F0.2762416319358284
ss(g1
S'  X O O  '
p2746
tp2747
(dp2748
g1471
F0.36589854804778355
sg1472
F0.08353460810762003
sg1473
F0.11599282167337766
sg1474
F0.2404481009123236
sg1476
F0.8843535183480439
sg1477
F0.5039565585676635
ss(g1
S' XOOOXXOX'
p2749
tp2750
(dp2751
g31
F0.9734802302081537
ss(g1
S' XOOO X  '
p2752
tp2753
(dp2754
g2354
F0.6303431398768188
sg1559
F0.3942138782940914
sg1560
F0.3485138655611101
sg2356
F0.06968634711241906
ss(g1
S'O XXOOOXX'
p2755
tp2756
(dp2757
g1262
F0.08472670700728879
ss(g1
S' X X O O '
p2758
tp2759
(dp2760
g454
F0.6734162721834862
sg453
F0.08127256323287402
sg450
F0.783330273213726
sg455
F0.32441938412803073
sg452
F0.4615535489565553
ss(g1
S'  O XXOO '
p2761
tp2762
(dp2763
(I0
I1
tp2764
F0.7469908871341232
s(I1
I0
tp2765
F0.9958195743403141
s(I0
I0
tp2766
F0.47739542544523805
s(I2
I2
tp2767
F0.6860180911111255
ss(g1
S'XXOO     '
p2768
tp2769
(dp2770
g2408
F0.04861808515319932
s(I2
I0
tp2771
F0.057610677630725804
sg2409
F0.8122916369647091
sg2410
F0.8466764007106518
s(I2
I2
tp2772
F0.8989088120400606
ss(g1
S' XOXXOOO '
p2773
tp2774
(dp2775
(I0
I0
tp2776
F0.6133675482693521
s(I2
I2
tp2777
F0.19984353091935803
ss(g1
S'  OOXX  O'
p2778
tp2779
(dp2780
(I0
I1
tp2781
F0.5460022963672211
s(I2
I0
tp2782
F0.7981914471510404
sg2114
F0.8596438560258259
sg2115
F0.9980276061911972
ss(g1
S'XXOOO    '
p2783
tp2784
(dp2785
(I1
I2
tp2786
F0.39348068608436393
s(I2
I0
tp2787
F0.4387450633596729
s(I2
I1
tp2788
F0.900365784997416
s(I2
I2
tp2789
F0.8484210644406944
ss(g1
S' X  X  OO'
p2790
tp2791
(dp2792
(I1
I2
tp2793
F0.8099378728351267
s(I2
I0
tp2794
F0.9991020317654543
sg564
F0.8923265787089695
s(I0
I0
tp2795
F0.5785710525454087
s(I0
I2
tp2796
F0.8597447643230534
ss(g1
S'OXOO  X  '
p2797
tp2798
(dp2799
(I1
I2
tp2800
F0.49473926343338936
s(I1
I1
tp2801
F0.29200269527531963
s(I2
I1
tp2802
F0.04290070969043458
s(I2
I2
tp2803
F0.4593570641511302
ss(g1
S'   O X  O'
p2804
tp2805
(dp2806
(I0
I1
tp2807
F0.3608944666355084
s(I0
I0
tp2808
F0.09001181846876449
s(I2
I1
tp2809
F0.5164304391461133
s(I1
I1
tp2810
F0.34553555740423936
s(I2
I0
tp2811
F0.27967635780179123
s(I0
I2
tp2812
F0.463301604192061
ss(g1
S' XOO  X O'
p2813
tp2814
(dp2815
(I1
I2
tp2816
F0.6516387076987333
s(I0
I0
tp2817
F0.6606813961722603
s(I1
I1
tp2818
F0.9379857044001945
s(I2
I1
tp2819
F0.23025047622456607
ss(g1
S'O    XOOX'
p2820
tp2821
(dp2822
g2495
F0.18781429496856594
sg2498
F0.40153823799417576
sg799
F0.19389383765877033
sg800
F0.1422045176751685
ss(g1
S'O  O  XX '
p2823
tp2824
(dp2825
(I0
I1
tp2826
F0.4651276567139838
s(I1
I2
tp2827
F0.46162460345834133
s(I2
I2
tp2828
F0.28905660675034517
s(I0
I2
tp2829
F0.5254704271214273
s(I1
I1
tp2830
F0.620248317004647
ss(g1
S'  OOOXX  '
p2831
tp2832
(dp2833
(I0
I1
tp2834
F0.5799321102120938
s(I0
I0
tp2835
F0.0782137547264472
s(I2
I1
tp2836
F0.15117351473494411
s(I2
I2
tp2837
F0.08355625474589334
ss(g1
S'O O XXOX '
p2838
tp2839
(dp2840
(I0
I1
tp2841
F0.538690891606736
s(I1
I0
tp2842
F0.9925645568097295
s(I2
I2
tp2843
F0.48445643296100427
ss(g1
S'OO  XXOXO'
p2844
tp2845
(dp2846
(I1
I0
tp2847
F0.9574980325771534
s(I0
I2
tp2848
F0.1769066367089911
ss(g1
S'XO X O  O'
p2849
tp2850
(dp2851
g716
F0.7825633972258766
s(I0
I2
tp2852
F0.9987306022136307
s(I2
I1
tp2853
F0.8834018879469119
sg717
F0.6086347765307938
ss(g1
S' XOO  XO '
p2854
tp2855
(dp2856
g1902
F0.5238085699115854
s(I0
I0
tp2857
F0.1679589995730374
s(I1
I1
tp2858
F0.5433627359995804
sg1903
F0.7251745596280555
ss(g1
S'OX     XO'
p2859
tp2860
(dp2861
g2181
F0.37447402365418536
sg2182
F0.06211717886572288
s(I1
I0
tp2862
F0.017057878675492022
s(I0
I2
tp2863
F0.9825535169176995
sg2183
F0.035188294553616495
ss(g1
S'XOOXO   X'
p2864
tp2865
(dp2866
(I1
I2
tp2867
F0.3714253988444247
s(I2
I0
tp2868
F0.9564128356175362
s(I2
I1
tp2869
F0.6490381383418014
ss(g1
S' OXOXXO O'
p2870
tp2871
(dp2872
(I0
I0
tp2873
F0.574279709838123
s(I2
I1
tp2874
F0.5463435122760444
ss(g1
S'XX O OXO '
p2875
tp2876
(dp2877
(I2
I2
tp2878
F0.539476852721274
s(I0
I2
tp2879
F0.9749097283123291
s(I1
I1
tp2880
F0.9960629485842601
ss(g323
S'  OX     '
p2881
tp2882
(dp2883
(I0
I1
tp2884
F0.45862732540165607
s(I1
I2
tp2885
F0.1723350268102678
s(I0
I0
tp2886
F0.24343286804986364
s(I2
I1
tp2887
F0.9889991487827877
s(I2
I0
tp2888
F0.501173002505685
s(I2
I2
tp2889
F0.9059887502500293
s(I1
I1
tp2890
F0.25478297432690644
ss(g1
S'  O O  X '
p2891
tp2892
(dp2893
(I0
I1
tp2894
F0.20282874267933393
s(I1
I2
tp2895
F0.11400632609199057
sg1394
F0.8390627021546111
sg1393
F0.30051248520262097
s(I2
I2
tp2896
F0.019353656716371126
s(I1
I0
tp2897
F0.8982129439735917
ss(g1
S'O OOOXX X'
p2898
tp2899
(dp2900
g2834
F0.4302917647368023
sg2836
F0.3190328959970534
ss(g1
S'O  OXOX  '
p2901
tp2902
(dp2903
(I0
I1
tp2904
F0.36546461140137987
s(I0
I2
tp2905
F0.058754002033532315
s(I2
I1
tp2906
F0.6081578890409435
s(I2
I2
tp2907
F0.22715716966861732
ss(g1
S' OXOXO OX'
p2908
tp2909
(dp2910
(I2
I0
tp2911
F0.9164808618374352
s(I0
I0
tp2912
F0.012919812365612904
ss(g323
S'X     O  '
p2913
tp2914
(dp2915
g1754
F0.5948986144825286
s(I1
I2
tp2916
F0.5038074811119784
sg1757
F0.9364775498377179
sg1756
F0.18122118955345956
s(I2
I2
tp2917
F0.5088559977382136
sg1755
F0.038639459593633685
sg1758
F0.9740286592085557
ss(g1
S'O OX X XO'
p2918
tp2919
(dp2920
(I0
I1
tp2921
F0.7446772162532511
s(I2
I0
tp2922
F0.611868800161437
s(I1
I1
tp2923
F0.22928381248774
ss(g1
S'O O   X  '
p2924
tp2925
(dp2926
(I0
I1
tp2927
F0.4885496083745131
sg2800
F0.5846040370475752
sg2802
F0.9278535452285747
sg2803
F0.6186573692602378
s(I1
I0
tp2928
F0.7252878006396384
sg2801
F0.4438670062053248
ss(g1
S' O X    O'
p2929
tp2930
(dp2931
(I1
I2
tp2932
F0.31379835656128285
sg1107
F0.971369713461395
sg1109
F0.6361887501651672
sg1108
F0.5740681471858485
sg1106
F0.48147496493280684
s(I0
I2
tp2933
F0.528535534160485
ss(g1
S' O  O OXX'
p2934
tp2935
(dp2936
(I1
I2
tp2937
F0.6275630606082053
s(I1
I0
tp2938
F0.2997870448504234
s(I0
I0
tp2939
F0.3922365359647947
s(I0
I2
tp2940
F0.9634600767327992
ss(g1
S'  OX   OX'
p2941
tp2942
(dp2943
(I0
I1
tp2944
F0.6692330654255404
sg2595
F0.22454911813244405
s(I0
I0
tp2945
F0.5102103355709369
sg2597
F0.658760662540939
sg2596
F0.45190151561060266
ss(g1
S'OO XOXOXX'
p2946
tp2947
(dp2948
g395
F0.9989722817313589
ss(g1
S'OOX XO   '
p2949
tp2950
(dp2951
g1837
F0.24555969134810163
sg1838
F0.5531556556379494
s(I2
I1
tp2952
F0.6280482432745659
s(I2
I2
tp2953
F0.6979313931789811
ss(g1
S'OX   X  O'
p2954
tp2955
(dp2956
(I2
I0
tp2957
F0.5536121517313244
s(I1
I0
tp2958
F0.9532624739847252
s(I0
I2
tp2959
F0.7189830419169825
s(I2
I1
tp2960
F0.7061665167065726
s(I1
I1
tp2961
F0.1270594631164932
ss(g1
S'OXOOXX OX'
p2962
tp2963
(dp2964
g1208
F0.6913693948624574
ss(g1
S'XO XOO  X'
p2965
tp2966
(dp2967
(I2
I0
tp2968
F0.9641096425706775
s(I0
I2
tp2969
F0.4335806812779365
s(I2
I1
tp2970
F0.8810234427581786
ss(g1
S'O X  OXO '
p2971
tp2972
(dp2973
(I0
I1
tp2974
F0.6641111105730495
sg1842
F0.3992707707696638
sg1843
F0.15324692027065379
s(I2
I2
tp2975
F0.8214078157049322
ss(g1
S'X   OO  X'
p2976
tp2977
(dp2978
(I0
I1
tp2979
F0.42113740104333985
sg2968
F0.33535676215600274
s(I1
I0
tp2980
F0.6000054813311791
sg2969
F0.7774963222286282
sg2970
F0.6277427204729501
ss(g1
S'O OXX O  '
p2981
tp2982
(dp2983
g1614
F0.4144229596016876
sg1615
F0.9775149492584116
sg1616
F0.0017919605837570796
sg1618
F0.7957800009433004
ss(g1
S' OOX  XXO'
p2984
tp2985
(dp2986
g607
F0.7077967140861525
sg609
F0.9722962131063514
sg610
F0.4006667490117315
ss(g1
S'   O  O X'
p2987
tp2988
(dp2989
(I0
I1
tp2990
F0.2633262403485108
s(I1
I2
tp2991
F0.9447819826442705
s(I0
I0
tp2992
F0.1446617073544577
s(I2
I1
tp2993
F0.18653460147879064
s(I1
I1
tp2994
F0.6166540888189954
s(I0
I2
tp2995
F0.054428790053030474
ss(g1
S'       XO'
p2996
tp2997
(dp2998
(I0
I1
tp2999
F0.03356542124516304
sg2181
F0.25881697500295464
s(I0
I0
tp3000
F0.41080363759022265
sg2183
F0.06955805797864434
sg2182
F0.9066918658937012
sg2862
F0.6903652687568794
sg2863
F0.2424250889104026
ss(g1
S'   O OXX '
p3001
tp3002
(dp3003
g2606
F0.6440896618130914
sg2608
F0.9878941343583291
s(I0
I0
tp3004
F0.03802400785495963
s(I0
I2
tp3005
F0.20601530386524847
sg2607
F0.7942786735211727
ss(g1
S'O OX X  O'
p3006
tp3007
(dp3008
g2018
F0.06962269739080951
sg2021
F0.9315407904880154
sg2023
F0.4203091588982266
sg2020
F0.11909762882518338
ss(g1
S'  OX OOXX'
p3009
tp3010
(dp3011
(I0
I1
tp3012
F0.9696925587565222
s(I0
I0
tp3013
F0.6078007899508279
s(I1
I1
tp3014
F0.6097710200996408
ss(g1
S'OO   X   '
p3015
tp3016
(dp3017
(I2
I1
tp3018
F0.1367163795511761
s(I1
I1
tp3019
F0.3692054728681853
s(I2
I0
tp3020
F0.5965444234328571
s(I2
I2
tp3021
F0.49492545442834024
s(I1
I0
tp3022
F0.8236224747381471
s(I0
I2
tp3023
F0.630979792178933
ss(g1
S' OO    X '
p3024
tp3025
(dp3026
g1274
F0.495889550993011
sg1275
F0.23754373650183813
sg1278
F0.9812037051539287
sg1279
F0.9608182180616848
sg1280
F0.9557248256523992
sg1277
F0.16995203396067293
ss(g1
S'O  OOXXX '
p3027
tp3028
(dp3029
g236
F0.9214797885034739
sg239
F0.3074461690167902
sg240
F0.05320898241023486
ss(g1
S'    XOO X'
p3030
tp3031
(dp3032
g2101
F0.15687240064963848
sg1489
F0.055699493812013334
s(I0
I0
tp3033
F0.26182175491284787
s(I0
I2
tp3034
F0.638853946877291
sg2102
F0.49643940751385573
ss(g1
S'O O X XOX'
p3035
tp3036
(dp3037
(I0
I1
tp3038
F0.6248977203981552
s(I1
I2
tp3039
F0.9136910735538071
s(I1
I0
tp3040
F0.26936024524034996
ss(g1
S'XOO XX OO'
p3041
tp3042
(dp3043
g1750
F0.5370463382515344
sg1749
F0.84625912611543
ss(g1
S'X O  O  X'
p3044
tp3045
(dp3046
g338
F0.4337161072826313
s(I2
I0
tp3047
F0.07394363128086301
sg339
F0.05859055943506697
s(I1
I1
tp3048
F0.1351295052949798
sg340
F0.02393964459601894
ss(g1
S'OO XOOXX '
p3049
tp3050
(dp3051
(I0
I2
tp3052
F0.44951956813356087
s(I2
I2
tp3053
F0.5317000233041987
ss(g1
S' OXX OOXO'
p3054
tp3055
(dp3056
g833
F0.9129554308725573
sg834
F0.46115637316557223
ss(g1
S' O OXXO  '
p3057
tp3058
(dp3059
g2873
F0.9177941457391628
s(I0
I2
tp3060
F0.047965659988653986
sg2874
F0.3745349427202431
s(I2
I2
tp3061
F0.31602536370094325
ss(g1
S'OXOX OOXX'
p3062
tp3063
(dp3064
g2731
F0.9213018329420055
ss(g1
S' O X O X '
p3065
tp3066
(dp3067
(I2
I2
tp3068
F0.347632133700597
s(I2
I0
tp3069
F0.018166235559250565
s(I0
I0
tp3070
F0.15683179651224666
s(I0
I2
tp3071
F0.5603346305000043
s(I1
I1
tp3072
F0.8701472613512035
ss(g1
S' OXXOOX  '
p3073
tp3074
(dp3075
g906
F0.978776664753934
sg907
F0.5406594576146786
sg908
F0.5024282086653491
ss(g1
S'OX       '
p3076
tp3077
(dp3078
g2272
F0.11060384008982116
sg2274
F0.6063901177891178
sg2275
F0.8902123680328372
s(I2
I0
tp3079
F0.15728455802185104
s(I2
I2
tp3080
F0.3617793859781985
sg2273
F0.6538166482434593
sg1721
F0.09663587310176602
ss(g1
S'X  O XXOO'
p3081
tp3082
(dp3083
g765
F0.5460410011448976
sg767
F0.6765311748174512
sg769
F0.3439420150866187
ss(g1
S'  X   OXO'
p3084
tp3085
(dp3086
g79
F0.28268981118009606
s(I1
I2
tp3087
F0.28753123167349537
sg80
F0.04029838944675024
sg81
F0.1305922072075466
s(I1
I1
tp3088
F0.6906753921575918
ss(g1
S'       O '
p3089
tp3090
(dp3091
(I0
I1
tp3092
F0.052284664248643975
s(I1
I2
tp3093
F0.6022960922196349
s(I0
I0
tp3094
F0.49950149075878825
sg1699
F0.9512369601723425
sg2502
F0.8769705746739312
sg2503
F0.6066922858415403
sg1698
F0.9108909100781682
s(I0
I2
tp3095
F0.8869792001134149
ss(g1
S'XX XO O O'
p3096
tp3097
(dp3098
(I1
I2
tp3099
F0.6311874589225253
s(I0
I2
tp3100
F0.9374965407802821
s(I2
I1
tp3101
F0.6759908191281586
ss(g1
S'OO   OXX '
p3102
tp3103
(dp3104
(I1
I0
tp3105
F0.84942648278398
sg3053
F0.781653429962831
sg3052
F0.41164523199759806
s(I1
I1
tp3106
F0.7119174643053291
ss(g1
S' OXX  OXO'
p3107
tp3108
(dp3109
g358
F0.3175753648853047
sg359
F0.03042336628280984
sg361
F0.023504420623493227
ss(g1
S'O O X    '
p3110
tp3111
(dp3112
(I0
I1
tp3113
F0.1745281409145052
s(I1
I2
tp3114
F0.9850278218210451
s(I2
I1
tp3115
F0.21979032739425142
s(I2
I0
tp3116
F0.7988077598298581
s(I2
I2
tp3117
F0.8217875109753939
s(I1
I0
tp3118
F0.5415899869083718
ss(g1
S'XXOO XOO '
p3119
tp3120
(dp3121
g588
F0.5195500588615259
sg589
F0.26913736547304135
ss(g1
S'XO OX OX '
p3122
tp3123
(dp3124
g1143
F0.0687375881289003
sg1145
F0.42662935352197395
sg232
F0.7717510792352679
ss(g1
S'XO OO   X'
p3125
tp3126
(dp3127
g1657
F0.8479743252888299
sg1660
F0.4968838702318287
sg1662
F0.044343564607133956
sg1659
F0.7158689077691573
ss(g1
S'  X OOOX '
p3128
tp3129
(dp3130
g1471
F0.15150615234989928
sg1477
F0.3405101951136348
sg1473
F0.3182179683334885
sg1476
F0.10984723985341438
ss(g1
S'OXOO XXOX'
p3131
tp3132
(dp3133
g167
F0.48162445560837397
ss(g1
S'XXOXXOOO '
p3134
tp3135
(dp3136
(I2
I2
tp3137
F0.9576632370660447
ss(g1
S' OXOXOO X'
p3138
tp3139
(dp3140
g996
F0.1458342240079077
sg998
F0.8897450172030672
ss(g1
S'O O XX OX'
p3141
tp3142
(dp3143
g593
F0.011226581232961164
sg597
F0.23810898356753651
sg595
F0.14025461226163027
ss(g1
S'O OX O  X'
p3144
tp3145
(dp3146
(I0
I1
tp3147
F0.2508065170530308
s(I2
I0
tp3148
F0.04964945575395008
s(I1
I1
tp3149
F0.8277236203095018
s(I2
I1
tp3150
F0.2013083756010402
ss(g1
S'XXOO  O  '
p3151
tp3152
(dp3153
g473
F0.9058716131538925
sg478
F0.7205534041557763
sg475
F0.04423574395166985
sg477
F0.9439092236988144
ss(g1
S'X O    OX'
p3154
tp3155
(dp3156
g1692
F0.34856789439505864
sg1693
F0.8164244993046129
s(I1
I0
tp3157
F0.5871582573806386
sg1694
F0.27688299489676427
s(I2
I0
tp3158
F0.2918558610407723
ss(g1
S'   O X   '
p3159
tp3160
(dp3161
g1708
F0.8823359215477927
sg1709
F0.4264631393761831
sg1711
F0.91034743106057
sg1712
F0.11528609462959805
s(I2
I0
tp3162
F0.9157407319375017
s(I2
I2
tp3163
F0.7288627624268298
sg1710
F0.19305589542669432
ss(g1
S'O OXXOXOX'
p3164
tp3165
(dp3166
g3038
F0.1805443053678233
ss(g1
S'XO  O    '
p3167
tp3168
(dp3169
g2676
F0.4806354182847068
s(I2
I1
tp3170
F0.44257154983664393
sg2677
F0.5256648443187512
sg2679
F0.4780861134684533
sg2678
F0.684269591881715
s(I0
I2
tp3171
F0.7067125729779619
ss(g1
S'XXOO  X O'
p3172
tp3173
(dp3174
g1530
F0.8126679858789972
sg1427
F0.4390951316093207
sg1532
F0.3420928180836499
ss(g1
S' X   O XO'
p3175
tp3176
(dp3177
g568
F0.18956804949569117
s(I1
I0
tp3178
F0.03447092183285183
s(I0
I0
tp3179
F0.6829615499958251
sg569
F0.15249534209527005
sg570
F0.4220645557143453
ss(g1
S'O  XXO OX'
p3180
tp3181
(dp3182
g1344
F0.2429778328843708
sg1346
F0.08744370209765662
sg1347
F0.20244846885947754
ss(g1
S'OX OOX  X'
p3183
tp3184
(dp3185
g2422
F0.4888498078997874
sg2423
F0.6578800149914816
sg2420
F0.712529578633084
ss(g1
S'OXX OOXOX'
p3186
tp3187
(dp3188
g1956
F0.12925075142833964
ss(g1
S'OX O     '
p3189
tp3190
(dp3191
(I1
I2
tp3192
F0.5992917342581419
s(I2
I1
tp3193
F0.2852954986259141
s(I1
I1
tp3194
F0.9953543939110995
s(I2
I0
tp3195
F0.73351458921347
s(I2
I2
tp3196
F0.6907608803393291
s(I0
I2
tp3197
F0.5624380141288695
ss(g1
S'XOO X  O '
p3198
tp3199
(dp3200
(I1
I2
tp3201
F0.3982329696811622
sg1358
F0.07919740150596954
s(I1
I0
tp3202
F0.4491949271348761
sg1359
F0.7629243698687391
ss(g1
S'OOX   XXO'
p3203
tp3204
(dp3205
g182
F0.6979061143149853
sg184
F0.5319418109138889
sg186
F0.5214736125828459
ss(g1
S' O  X X O'
p3206
tp3207
(dp3208
g125
F0.06909130162876964
sg2141
F0.49890245484389417
sg2139
F0.8788760081204474
sg126
F0.11029196678672437
sg127
F0.014636377846868887
ss(g1
S'O        '
p3209
tp3210
(dp3211
(I0
I1
tp3212
F0.4356801568349443
s(I1
I2
tp3213
F0.6674189130762137
s(I2
I1
tp3214
F0.061525927382863665
sg1328
F0.6445787053220536
s(I2
I0
tp3215
F0.5771222460844504
s(I2
I2
tp3216
F0.42074591367113046
sg1327
F0.27009414425784495
s(I0
I2
tp3217
F0.6353715376247387
ss(g1
S'OXO O X  '
p3218
tp3219
(dp3220
g1439
F0.32783121589013364
sg1257
F0.8242801671705978
sg1441
F0.052521704828243365
sg1258
F0.4236789496486918
ss(g1
S'OOXOOXXX '
p3221
tp3222
(dp3223
g240
F0.9777498221823627
ss(g1
S'  X     O'
p3224
tp3225
(dp3226
g296
F0.30043958772950763
s(I1
I2
tp3227
F0.3545785843187942
sg299
F0.28913067777831813
sg300
F0.7421117011851532
sg297
F0.05160412810303294
sg298
F0.11898024337139135
s(I1
I1
tp3228
F0.019568918152286785
ss(g1
S'OX OX  O '
p3229
tp3230
(dp3231
(I1
I2
tp3232
F0.9882041805999084
s(I2
I0
tp3233
F0.21997554254918994
s(I0
I2
tp3234
F0.35861392660605973
s(I2
I2
tp3235
F0.7033781058951395
ss(g1
S' XX O   O'
p3236
tp3237
(dp3238
(I1
I2
tp3239
F0.12114043965309329
s(I2
I0
tp3240
F0.9314135428404126
s(I1
I0
tp3241
F0.13447128614798298
s(I0
I0
tp3242
F0.9602794045234666
s(I2
I1
tp3243
F0.9892011504968397
ss(g1
S'XOX XOOO '
p3244
tp3245
(dp3246
(I1
I0
tp3247
F0.7834905929355496
s(I2
I2
tp3248
F0.33786085593019566
ss(g1
S'X X  OOOX'
p3249
tp3250
(dp3251
g2119
F0.9039720536277128
sg2121
F0.21891276601179832
sg2123
F0.9534851828251494
ss(g1
S' OXOOXXXO'
p3252
tp3253
(dp3254
g161
F0.28432136469519687
ss(g1
S' O XO O X'
p3255
tp3256
(dp3257
(I1
I2
tp3258
F0.9950423008610696
s(I0
I0
tp3259
F0.8724507172639347
s(I0
I2
tp3260
F0.02248243669967509
s(I2
I1
tp3261
F0.6874121505457496
ss(g1
S'X OXX OO '
p3262
tp3263
(dp3264
(I0
I1
tp3265
F0.5000446377228196
s(I1
I2
tp3266
F0.04904968927669262
sg3137
F0.34909571320011146
ss(g1
S'OXOX OXOX'
p3267
tp3268
(dp3269
g661
F0.3256178769316207
ss(g1
S'     X  O'
p3270
tp3271
(dp3272
g1268
F0.9187506833366098
sg1269
F0.18539787953667408
sg1270
F0.8849041832854102
sg2442
F0.9586285291869885
s(I2
I0
tp3273
F0.8159187592702817
sg2441
F0.06164906103164125
s(I0
I2
tp3274
F0.9495818161969746
ss(g1
S' X X  O O'
p3275
tp3276
(dp3277
g2065
F0.16043367042887502
sg2066
F0.9414484241134053
s(I0
I2
tp3278
F0.6792932646762608
sg2067
F0.324561681705147
s(I1
I1
tp3279
F0.7776164093225976
ss(g1
S'XOOO XXOX'
p3280
tp3281
(dp3282
g1694
F0.970208953271334
ss(g1
S' O     X '
p3283
tp3284
(dp3285
g2213
F0.5221950092734594
s(I0
I0
tp3286
F0.15121687392282168
sg396
F0.16018319614090393
sg2214
F0.9621882621310023
s(I2
I2
tp3287
F0.3435783503673231
sg394
F0.13455800220864367
sg395
F0.7381230814845056
ss(g1
S'OXOOX    '
p3288
tp3289
(dp3290
g2454
F0.2279108205037187
sg2456
F0.6665836371496028
sg2455
F0.3765305926383028
sg2457
F0.20623037458711468
ss(g1
S'O O   X X'
p3291
tp3292
(dp3293
g3038
F0.1421007933719921
sg3039
F0.6878845909308892
sg3040
F0.4190694065311943
s(I1
I1
tp3294
F0.8220602528170181
s(I2
I1
tp3295
F0.37114893961827833
ss(g1
S'X  OO   X'
p3296
tp3297
(dp3298
(I0
I1
tp3299
F0.4294567128887854
s(I1
I2
tp3300
F0.7279788385253844
s(I0
I2
tp3301
F0.22650409117371573
s(I2
I1
tp3302
F0.7509363522180033
s(I2
I0
tp3303
F0.06505660553625725
ss(g1
S'XO X O XO'
p3304
tp3305
(dp3306
g3069
F0.9889427402044543
sg3071
F0.239324042200184
sg3072
F0.5526792119674434
ss(g1
S'   O OX X'
p3307
tp3308
(dp3309
(I0
I1
tp3310
F0.7171359406660814
s(I0
I0
tp3311
F0.8197345338739697
s(I0
I2
tp3312
F0.7442901049315322
s(I2
I1
tp3313
F0.9999658221536394
s(I1
I1
tp3314
F0.3801936868568553
ss(g1
S' XX OOOXO'
p3315
tp3316
(dp3317
g1477
F0.31595213911661135
sg1473
F0.9496681288825128
ss(g1
S'OOXXXOO  '
p3318
tp3319
(dp3320
g401
F0.424103639347561
sg404
F0.05136183808295014
ss(g1
S'  OOOX X '
p3321
tp3322
(dp3323
g2894
F0.648974593820482
sg1393
F0.861254265691681
sg1394
F0.7405393355998022
sg2896
F0.21214561646413377
ss(g1
S'O OXXO OX'
p3324
tp3325
(dp3326
g63
F0.5652736279175035
sg66
F0.4461201524487406
ss(g1
S'O OXOO XX'
p3327
tp3328
(dp3329
g3147
F0.36047003402584843
sg3148
F0.6563413679274845
ss(g1
S' XOXXOO  '
p3330
tp3331
(dp3332
g1914
F0.550105675499949
sg1916
F0.7974536484973187
sg1913
F0.4740371172675244
ss(g1
S'O   X  XO'
p3333
tp3334
(dp3335
(I0
I1
tp3336
F0.49720505230355005
sg176
F0.22695104983236292
s(I1
I0
tp3337
F0.7546727034995464
sg178
F0.7237512109821018
sg177
F0.33622643427006293
ss(g1
S' X O XO O'
p3338
tp3339
(dp3340
g2808
F0.7103772335297949
sg2812
F0.9706774111390102
sg2809
F0.09673181244681239
sg2810
F0.19881474399652532
ss(g1
S'O    O  X'
p3341
tp3342
(dp3343
g3147
F0.5096622916630925
sg3150
F0.05630323087035305
sg3149
F0.6076400161797726
sg3148
F0.6363279878494875
s(I1
I0
tp3344
F0.8908104419438806
s(I0
I2
tp3345
F0.7939430071240832
ss(g1
S'X O  X OO'
p3346
tp3347
(dp3348
(I0
I1
tp3349
F0.3654888766068699
sg1949
F0.8367947662748585
s(I1
I0
tp3350
F0.3437100533326666
sg1950
F0.9358658534522919
ss(g1
S' OX XOO  '
p3351
tp3352
(dp3353
(I1
I0
tp3354
F0.6715925061057362
s(I0
I0
tp3355
F0.111239191392969
s(I2
I1
tp3356
F0.924750455427302
s(I2
I2
tp3357
F0.08288741105014286
ss(g1
S' X XOO XO'
p3358
tp3359
(dp3360
(I2
I0
tp3361
F0.9904905103699887
s(I0
I0
tp3362
F0.7759182825137515
s(I0
I2
tp3363
F0.7014800446058804
ss(g1
S' O O XXXO'
p3364
tp3365
(dp3366
g161
F0.6062098630258995
sg162
F0.06925059151851032
sg163
F0.961172676560454
ss(g1
S'  O  X O '
p3367
tp3368
(dp3369
g2764
F0.2858412924928049
sg2766
F0.5776477769149891
s(I2
I0
tp3370
F0.000672748423554359
sg2767
F0.07097856615107401
sg2765
F0.22192013088567863
s(I1
I1
tp3371
F0.7636814208120595
ss(g1
S'XOXX OOXO'
p3372
tp3373
(dp3374
g361
F0.7038641348949604
ss(g1
S'XO   OXO '
p3375
tp3376
(dp3377
(I1
I0
tp3378
F0.3767251853458533
s(I2
I2
tp3379
F0.4842737481680677
sg982
F0.3184764231057493
sg983
F0.20052581069273712
ss(g1
S'X XXOOOXO'
p3380
tp3381
(dp3382
(I0
I1
tp3383
F0.9266814534770608
ss(g1
S'  X O XO '
p3384
tp3385
(dp3386
g1954
F0.4926343689702908
sg1955
F0.21863284158219554
sg1956
F0.630312715931841
s(I0
I0
tp3387
F0.07961255101932807
s(I2
I2
tp3388
F0.9519999134159411
ss(g1
S'OO   X XO'
p3389
tp3390
(dp3391
g3215
F0.09178675239840828
sg1327
F0.5208470578684343
sg3217
F0.04642936942585896
sg1328
F0.650925491779392
ss(g1
S'XO      O'
p3392
tp3393
(dp3394
g738
F0.7870794868988418
sg739
F0.4302506850706541
s(I1
I1
tp3395
F0.360510484637076
sg97
F0.13882922224674277
s(I1
I0
tp3396
F0.6696399691841244
sg98
F0.41594592528548346
ss(g1
S'X  O O XO'
p3397
tp3398
(dp3399
g751
F0.09841255210442446
sg754
F0.13443261586087307
sg756
F0.3134170636288225
sg753
F0.2823665791277945
ss(g1
S' OXO  XXO'
p3400
tp3401
(dp3402
(I1
I2
tp3403
F0.18773352101130103
s(I0
I0
tp3404
F0.7389325252700405
s(I1
I1
tp3405
F0.999245134343994
ss(g1
S'OXOOOXX X'
p3406
tp3407
(dp3408
g2420
F0.9954552013057338
ss(g1
S'O  X XOXO'
p3409
tp3410
(dp3411
(I0
I1
tp3412
F0.5476081278685749
s(I0
I2
tp3413
F0.41660973646645416
s(I1
I1
tp3414
F0.33369779336576133
ss(g1
S'O OXXO  X'
p3415
tp3416
(dp3417
(I0
I1
tp3418
F0.4108112313275265
s(I2
I0
tp3419
F0.7310441222793732
s(I2
I1
tp3420
F0.26532761353818646
ss(g1
S'     OXOX'
p3421
tp3422
(dp3423
(I0
I1
tp3424
F0.6254557658182521
s(I1
I0
tp3425
F0.05914386922317372
s(I0
I0
tp3426
F0.6700394014146115
s(I0
I2
tp3427
F0.4415098413093197
s(I1
I1
tp3428
F0.06750672472779207
ss(g1
S'XX OO   O'
p3429
tp3430
(dp3431
(I1
I2
tp3432
F0.21153014193358444
s(I2
I0
tp3433
F0.856309210163829
s(I0
I2
tp3434
F0.8062873525448796
s(I2
I1
tp3435
F0.5090190471368646
ss(g1
S'OX OXOXOX'
p3436
tp3437
(dp3438
g1452
F0.9042165206674685
ss(g1
S' XX OO XO'
p3439
tp3440
(dp3441
(I2
I0
tp3442
F0.3841358870640943
s(I1
I0
tp3443
F0.8951510196919436
s(I0
I0
tp3444
F0.9561580935223015
ss(g1
S'XX XOOOXO'
p3445
tp3446
(dp3447
g2093
F0.9893863993825813
ss(g1
S'XOXX OO  '
p3448
tp3449
(dp3450
g16
F0.8160064865454589
sg15
F0.7207081566792011
sg13
F0.2903021609637415
ss(g1
S'XX O   O '
p3451
tp3452
(dp3453
(I1
I2
tp3454
F0.9692953235619386
s(I2
I0
tp3455
F0.2823937426635842
s(I2
I2
tp3456
F0.2610182068752399
s(I0
I2
tp3457
F0.9976793644242619
s(I1
I1
tp3458
F0.5532423965622776
ss(g1
S'O XOO XX '
p3459
tp3460
(dp3461
g2826
F0.12887735437967718
sg2827
F0.1556483643175951
sg2828
F0.9323345423586555
ss(g1
S'  O X  O '
p3462
tp3463
(dp3464
(I0
I1
tp3465
F0.9887660578485492
s(I1
I2
tp3466
F0.054810365576481335
s(I0
I0
tp3467
F0.1181582690831966
s(I2
I0
tp3468
F0.2675041814538507
s(I2
I2
tp3469
F0.8645100297184845
s(I1
I0
tp3470
F0.48508075421389696
ss(g1
S'O X OOX X'
p3471
tp3472
(dp3473
g417
F0.34988909628190534
sg419
F0.3559895078523677
sg420
F0.9183995872729867
ss(g1
S'X X  OOO '
p3474
tp3475
(dp3476
(I0
I1
tp3477
F0.2062785032343134
s(I1
I0
tp3478
F0.8371487618638511
s(I1
I1
tp3479
F0.7092234982791206
s(I2
I2
tp3480
F0.6314731451108619
ss(g1
S'XOOX OO X'
p3481
tp3482
(dp3483
g2620
F0.5482220829398075
sg2617
F0.8380854453670572
ss(g1
S'OOX O  XX'
p3484
tp3485
(dp3486
(I1
I2
tp3487
F0.997967629616451
s(I2
I0
tp3488
F0.8448037338055394
s(I1
I0
tp3489
F0.1258594797024103
ss(g1
S'  O    X '
p3490
tp3491
(dp3492
(I0
I1
tp3493
F0.12746025004187989
sg607
F0.4391172000100748
sg609
F0.1337679161472688
s(I2
I0
tp3494
F0.613764139033632
sg611
F0.015380469112808104
sg608
F0.6500172710407138
sg610
F0.49168073585214933
ss(g1
S' XO O    '
p3495
tp3496
(dp3497
g1439
F0.13138831317979816
sg1440
F0.024619961344204078
sg1441
F0.1528828431723851
sg1442
F0.6957675711114656
sg1258
F0.8214340025720399
sg1257
F0.5080299095201732
ss(g1
S' X XO  O '
p3498
tp3499
(dp3500
g1128
F0.16150809670233213
sg1131
F0.9044729646457592
sg1129
F0.30851059414851045
sg1134
F0.6120695851658162
sg1132
F0.4864283026972367
ss(g1
S'XX OX O O'
p3501
tp3502
(dp3503
(I1
I2
tp3504
F0.7814041044102638
s(I0
I2
tp3505
F0.4506786320906706
sg2398
F0.7956104128241656
ss(g1
S'XXOOXO O '
p3506
tp3507
(dp3508
g2687
F0.29092120094405527
sg2689
F0.18313727437826932
ss(g1
S'  O O X X'
p3509
tp3510
(dp3511
g2427
F0.03337461972093525
sg2428
F0.35561169363696876
s(I1
I0
tp3512
F0.4586865897062088
sg2429
F0.7845978565843095
s(I2
I1
tp3513
F0.8362523234688725
ss(g1
S' OX    O '
p3514
tp3515
(dp3516
g3093
F0.2088167723253057
sg3094
F0.9970167787867376
sg2502
F0.3419862221166252
sg2503
F0.02801387735929972
sg1698
F0.29720679268283223
sg1699
F0.3606917058863168
ss(g1
S'OXO XOO X'
p3517
tp3518
(dp3519
g2446
F0.9975129341100489
sg2449
F0.5490975564872532
ss(g1
S' O OXOX  '
p3520
tp3521
(dp3522
g1056
F0.7490574721824467
sg1057
F0.1064319153867408
s(I2
I1
tp3523
F0.9483189200195442
s(I2
I2
tp3524
F0.1895210254651034
ss(g1
S'O  XOOXX '
p3525
tp3526
(dp3527
(I0
I1
tp3528
F0.8719502222762279
s(I0
I2
tp3529
F0.6578565108596603
s(I2
I2
tp3530
F0.9167289394631428
ss(g1
S'O  X O X '
p3531
tp3532
(dp3533
g2729
F0.8433382004983364
sg2730
F0.7274528476678628
s(I2
I2
tp3534
F0.886108225495992
s(I0
I2
tp3535
F0.07622249331268582
sg2731
F0.33592430582312605
ss(g1
S'  O  XO X'
p3536
tp3537
(dp3538
(I0
I1
tp3539
F0.593977584467064
s(I1
I0
tp3540
F0.22619760446516268
s(I0
I0
tp3541
F0.6301020939056053
s(I1
I1
tp3542
F0.1327063788053474
s(I2
I1
tp3543
F0.769073423504466
ss(g1
S'O OX XO X'
p3544
tp3545
(dp3546
g804
F0.9917392040188708
sg808
F0.9112350286492301
sg807
F0.7304813041875751
ss(g1
S'O OO  X X'
p3547
tp3548
(dp3549
g244
F0.6873458827322655
s(I1
I2
tp3550
F0.2911124521927253
s(I1
I1
tp3551
F0.11870632869899644
sg245
F0.9820615192009184
ss(g1
S'  O X  OX'
p3552
tp3553
(dp3554
(I0
I1
tp3555
F0.2899356912116069
sg1732
F0.43558395331688227
sg1733
F0.5701098922086832
sg1734
F0.17010414954984987
s(I2
I0
tp3556
F0.1408624759789413
ss(g1
S'   OOX   '
p3557
tp3558
(dp3559
(I0
I1
tp3560
F0.33000498266897205
sg2346
F0.13782128554700634
sg2347
F0.5044536302155032
sg1002
F0.635575843114628
sg1003
F0.6011452658073525
s(I0
I2
tp3561
F0.6396457348907505
ss(g1
S'O XXOXOO '
p3562
tp3563
(dp3564
(I0
I1
tp3565
F0.6923674352365844
s(I2
I2
tp3566
F0.6325213994639971
ss(g1
S'X O   XOO'
p3567
tp3568
(dp3569
g2161
F0.9896124651827135
sg2162
F0.9569934590576564
sg2165
F0.9283387243582305
sg2166
F0.9826136367340755
ss(g1
S'OXOXXOO X'
p3570
tp3571
(dp3572
g1916
F0.9437752815034172
ss(g1
S'  X OOXO '
p3573
tp3574
(dp3575
(I0
I1
tp3576
F0.7209699735441396
s(I1
I0
tp3577
F0.0023178455284441624
s(I0
I0
tp3578
F0.3706282687808796
s(I2
I2
tp3579
F0.938254800754949
ss(g1
S'XXOO OOXX'
p3580
tp3581
(dp3582
g436
F0.921945976545367
ss(g1
S'O  O    X'
p3583
tp3584
(dp3585
g244
F0.5141969227996799
sg3550
F0.38521109562307
sg245
F0.7633518628364867
sg3551
F0.221121781724548
s(I2
I0
tp3586
F0.4583759500874589
s(I0
I2
tp3587
F0.6994856048215506
ss(g1
S'OO XXO  X'
p3588
tp3589
(dp3590
(I2
I0
tp3591
F0.7444297998059185
s(I0
I2
tp3592
F0.6142411440006003
s(I2
I1
tp3593
F0.38644151525533754
ss(g1
S'X   O    '
p3594
tp3595
(dp3596
g226
F0.3649152310599464
sg1875
F0.5727262811845472
sg1876
F0.07397131115691646
s(I2
I0
tp3597
F0.24524370623890335
s(I2
I2
tp3598
F0.9841634769502566
sg227
F0.41246368299877423
sg228
F0.6445049777828039
ss(g1
S'  OO X X '
p3599
tp3600
(dp3601
g2712
F0.4372679637393514
s(I2
I0
tp3602
F0.9468655637600485
s(I0
I0
tp3603
F0.7815613533857426
sg2713
F0.38651498280141483
sg2714
F0.8121311908123726
ss(g1
S'X  O    O'
p3604
tp3605
(dp3606
g289
F0.8436347417777708
sg290
F0.059356065378850076
s(I2
I1
tp3607
F0.15142347694599945
s(I1
I1
tp3608
F0.8803179108364776
sg292
F0.49316504002579087
sg291
F0.4093389987899123
ss(g1
S'XOX OXO  '
p3609
tp3610
(dp3611
g989
F0.4081532476934754
sg990
F0.15875186356387794
sg991
F0.9981617559555324
ss(g1
S' OXXXOOO '
p3612
tp3613
(dp3614
g3355
F0.9178053723566846
sg3357
F0.35800379533344184
ss(g1
S'O  X     '
p3615
tp3616
(dp3617
g912
F0.6554526445852545
sg913
F0.5874741058460875
sg915
F0.39272072373558664
s(I1
I1
tp3618
F0.21658784018545785
s(I2
I0
tp3619
F0.6102839193955103
sg916
F0.5563395815321477
sg914
F0.14089156201729924
ss(g1
S'OX  X OOX'
p3620
tp3621
(dp3622
g2272
F0.3289090491540192
sg2273
F0.0415342470782577
sg1721
F0.9593235687931764
ss(g1
S'XO X  O O'
p3623
tp3624
(dp3625
(I1
I2
tp3626
F0.9095335295572398
s(I0
I2
tp3627
F0.30508502230917356
s(I2
I1
tp3628
F0.08942353951500714
s(I1
I1
tp3629
F0.44229284144240655
ss(g1
S'O O XXO  '
p3630
tp3631
(dp3632
g3113
F0.6947593987272825
sg3118
F0.9594268825377682
sg3115
F0.6409742062148458
sg3117
F0.593605641923816
ss(g1
S'XO O     '
p3633
tp3634
(dp3635
(I1
I2
tp3636
F0.5233378290912926
s(I2
I1
tp3637
F0.0214656242984832
sg923
F0.7573102159603031
sg920
F0.069064996426913
sg921
F0.21578894926683911
sg922
F0.3055351098340301
ss(g1
S'X  O     '
p3638
tp3639
(dp3640
g765
F0.2853678637367566
sg766
F0.6894409230619795
sg768
F0.8009737323424788
sg769
F0.9786251556899468
s(I2
I0
tp3641
F0.04455325701721802
s(I2
I2
tp3642
F0.744827647369041
sg767
F0.8650909994041726
ss(g1
S'OXO XOXOX'
p3643
tp3644
(dp3645
g792
F0.04313967926942053
ss(g1
S' XOOX O X'
p3646
tp3647
(dp3648
(I1
I2
tp3649
F0.13458099014621816
s(I0
I0
tp3650
F1.0
s(I2
I1
tp3651
F0.9665084598106917
ss(g1
S'   O  XXO'
p3652
tp3653
(dp3654
(I0
I1
tp3655
F0.8493145127783174
s(I1
I2
tp3656
F0.06157403385187543
s(I0
I0
tp3657
F0.8639652268878093
s(I0
I2
tp3658
F0.9735805078317467
sg1833
F0.11668728298701603
ss(g1
S' OX  O   '
p3659
tp3660
(dp3661
(I0
I0
tp3662
F0.5888727219768016
s(I2
I1
tp3663
F0.18387518177091444
sg1520
F0.6152579782390831
sg2146
F0.20288101738597597
sg1521
F0.6834289964356752
sg2145
F0.8361655540872491
ss(g1
S'OX XOO X '
p3664
tp3665
(dp3666
(I2
I0
tp3667
F0.9035562094080017
s(I0
I2
tp3668
F0.8643088503276327
s(I2
I2
tp3669
F0.4308617204462605
ss(g1
S'XXOO XOOX'
p3670
tp3671
(dp3672
g2285
F0.9160495373281744
ss(g1
S'X OOX  XO'
p3673
tp3674
(dp3675
g1014
F0.14986442805257916
sg1015
F0.17053777303142226
sg1018
F0.6448686841249709
ss(g1
S'XXOO OOX '
p3676
tp3677
(dp3678
g478
F0.4091684353684112
sg477
F0.2415161171854907
ss(g1
S'     O   '
p3679
tp3680
(dp3681
g751
F0.1663515931656534
s(I0
I0
tp3682
F0.6936179806527568
sg752
F0.30926126464833403
sg753
F0.09316454151358422
sg754
F0.7407729600523945
sg755
F0.654960711758816
s(I1
I0
tp3683
F0.21677253736926572
sg756
F0.15678183951278113
ss(g1
S'O XO   X '
p3684
tp3685
(dp3686
(I0
I1
tp3687
F0.08537075130899496
s(I1
I2
tp3688
F0.614146044843637
sg2630
F0.6503660799929528
sg615
F0.36178189163845687
sg2629
F0.8416663813843689
ss(g1
S' OXXOOO X'
p3689
tp3690
(dp3691
g1624
F0.8750323550505918
sg1625
F0.14754398460479
ss(g1
S'XO XO OXO'
p3692
tp3693
(dp3694
g3626
F0.8781315822134691
sg3627
F0.14256508093711207
ss(g1
S' OO   XXO'
p3695
tp3696
(dp3697
g1274
F0.525932453703505
sg1280
F0.6855400572930003
sg1275
F0.5731536257854799
sg1277
F0.6551042533741178
ss(g1
S'O OXOXXOX'
p3698
tp3699
(dp3700
g1584
F0.8510362759499401
ss(g1
S'XOO  X  O'
p3701
tp3702
(dp3703
g1332
F0.42535260345637904
s(I1
I0
tp3704
F0.43800937283377994
sg1333
F0.7381671731842457
s(I2
I1
tp3705
F0.7975442111301572
ss(g1
S'O O X  OX'
p3706
tp3707
(dp3708
g3465
F0.9222296339177377
sg3466
F0.9066951775809159
sg3470
F0.4191303791794788
sg3468
F0.3600961080748857
ss(g1
S'OX  X  O '
p3709
tp3710
(dp3711
g2507
F0.6956651094154954
sg2508
F0.07365166228782372
sg2509
F0.04647744982504809
s(I0
I2
tp3712
F0.28215936729954705
s(I2
I2
tp3713
F0.08895030808009685
ss(g1
S'XX OOXOXO'
p3714
tp3715
(dp3716
g2088
F0.9613131178821104
ss(g323
S'   X  O  '
p3717
tp3718
(dp3719
g1262
F0.9125582037347492
sg1263
F0.12892913274893236
s(I0
I0
tp3720
F0.9231089466558612
sg1264
F0.24342596638060654
s(I1
I1
tp3721
F0.19181770171175205
s(I2
I2
tp3722
F0.34755706133337094
s(I0
I2
tp3723
F0.059287800881497765
ss(g1
S'XO O XOXO'
p3724
tp3725
(dp3726
g1763
F0.7673588461287388
sg1765
F0.9440393285914379
ss(g1
S'O OXX  OX'
p3727
tp3728
(dp3729
(I0
I1
tp3730
F0.3473279197887381
s(I1
I2
tp3731
F0.9974199788967149
s(I2
I0
tp3732
F0.16488588176054197
ss(g1
S'O   XO X '
p3733
tp3734
(dp3735
g956
F0.9750715552938911
sg957
F0.19593997541204788
sg958
F0.2951678261528916
s(I0
I2
tp3736
F0.8819874014695378
s(I2
I2
tp3737
F0.14572179213822256
ss(g1
S'OXXX O  O'
p3738
tp3739
(dp3740
g627
F0.17904894414114214
sg628
F0.5831576962320069
sg390
F0.8655631822324792
ss(g1
S'  X  O O '
p3741
tp3742
(dp3743
g3477
F0.4298277056257318
s(I0
I0
tp3744
F0.43372837511869655
s(I2
I0
tp3745
F0.9319175082997598
sg3480
F0.3192810816721411
sg3478
F0.6181935134713495
sg3479
F0.5254672024505133
ss(g1
S'OXXXXO OO'
p3746
tp3747
(dp3748
g2508
F0.9024400687222015
ss(g1
S' X OO   X'
p3749
tp3750
(dp3751
(I1
I2
tp3752
F0.7601903615489423
s(I2
I0
tp3753
F0.38470402238875856
s(I0
I0
tp3754
F0.2777350328221534
s(I0
I2
tp3755
F0.3206755720469575
s(I2
I1
tp3756
F0.37833789110414573
ss(g1
S' O XX O O'
p3757
tp3758
(dp3759
g1509
F0.3912348616871484
sg1969
F0.8082032484808978
sg1510
F0.5942760905785825
sg1970
F0.3068882994150587
ss(g1
S'   O XXO '
p3760
tp3761
(dp3762
g1117
F0.7713460924913975
sg2280
F0.14982562416729628
s(I0
I0
tp3763
F0.9641135067505524
s(I0
I2
tp3764
F0.3132149498404452
sg2279
F0.020169285244419632
ss(g1
S'       OX'
p3765
tp3766
(dp3767
(I0
I1
tp3768
F0.6916071293081849
s(I1
I2
tp3769
F0.20935073416053818
sg860
F0.2561866390423546
sg862
F0.8882395557378858
sg858
F0.0989900786327782
sg859
F0.5370805603149104
sg861
F0.441667560084828
ss(g1
S'O O X  X '
p3770
tp3771
(dp3772
(I0
I1
tp3773
F0.9204959136064264
s(I1
I2
tp3774
F0.9867627536588841
s(I1
I0
tp3775
F0.5247697137689559
s(I2
I2
tp3776
F0.2845434356260299
s(I2
I0
tp3777
F0.543339903707653
ss(g1
S' XOOX  O '
p3778
tp3779
(dp3780
g385
F0.3464113182775247
sg386
F0.2063233136663961
s(I0
I0
tp3781
F0.3205774378016547
s(I2
I2
tp3782
F0.5094853728819981
ss(g1
S' O    XOX'
p3783
tp3784
(dp3785
(I1
I2
tp3786
F0.7272585060125888
s(I1
I0
tp3787
F0.932310911740714
s(I0
I0
tp3788
F0.7264844181734813
s(I0
I2
tp3789
F0.7259085807237918
s(I1
I1
tp3790
F0.736536362150806
ss(g1
S' O XO XXO'
p3791
tp3792
(dp3793
g281
F0.15467679473998253
sg283
F0.7102494042606868
sg284
F0.8295521350893619
ss(g1
S'OXOOX  OX'
p3794
tp3795
(dp3796
g3232
F0.4632392353363419
sg3233
F0.09561494827010664
ss(g1
S'XO O XX O'
p3797
tp3798
(dp3799
g1710
F0.7610016939182007
sg1711
F0.8976040942037501
sg1712
F0.7117293828809853
ss(g1
S'OOX XOOX '
p3800
tp3801
(dp3802
g73
F0.3485839150835186
sg75
F0.10239433980024082
ss(g1
S'  O XX O '
p3803
tp3804
(dp3805
g721
F0.311774247382384
sg725
F0.36719009616433473
sg727
F0.904968411419772
sg723
F0.9112475324506085
sg726
F0.45080338764276606
ss(g1
S'OXO X O X'
p3806
tp3807
(dp3808
(I1
I2
tp3809
F0.6479065658790394
s(I1
I0
tp3810
F0.5380901094493653
s(I2
I1
tp3811
F0.9496981780716087
ss(g1
S'XOOXOX  O'
p3812
tp3813
(dp3814
(I2
I0
tp3815
F0.9993507711173141
s(I2
I1
tp3816
F0.018415901281275016
ss(g1
S'  O XO OX'
p3817
tp3818
(dp3819
g63
F0.49367867603012094
sg66
F0.26909048818388337
sg68
F0.3343441985037555
sg64
F0.7031499906494213
ss(g1
S' OX XOOOX'
p3820
tp3821
(dp3822
(I1
I0
tp3823
F0.6170680806287416
s(I0
I0
tp3824
F0.31869232265859904
ss(g1
S'  XO XOO '
p3825
tp3826
(dp3827
(I0
I1
tp3828
F0.9727307206980059
s(I0
I0
tp3829
F0.16559712647077274
s(I1
I1
tp3830
F0.3545878322764281
s(I2
I2
tp3831
F0.3479159202577391
ss(g1
S'O   X    '
p3832
tp3833
(dp3834
g3336
F0.18745521043295976
sg176
F0.8692533109210638
s(I2
I1
tp3835
F0.9784456880732078
sg177
F0.22274702289435255
s(I2
I2
tp3836
F0.09448103095536553
sg3337
F0.33097461181294896
sg178
F0.8703025211895432
ss(g1
S'O OOXOXX '
p3837
tp3838
(dp3839
g2904
F0.9573253709837981
sg2907
F0.9990373646848465
ss(g1
S'O  O  X  '
p3840
tp3841
(dp3842
(I0
I1
tp3843
F0.17795988282241304
s(I1
I2
tp3844
F0.4105151537434927
s(I2
I1
tp3845
F0.37977561873009236
s(I1
I1
tp3846
F0.6421921093838184
s(I2
I2
tp3847
F0.5122098618255716
s(I0
I2
tp3848
F0.16171856389438888
ss(g1
S'  OO XXOX'
p3849
tp3850
(dp3851
g28
F0.9734237828038038
sg31
F0.5365909739010288
sg32
F0.006653304376672553
ss(g1
S'XO OXXXOO'
p3852
tp3853
(dp3854
g1710
F0.9168310541547173
ss(g1
S'OOX   XOX'
p3855
tp3856
(dp3857
(I1
I2
tp3858
F0.6132548027488687
s(I1
I0
tp3859
F0.4561439013054641
s(I1
I1
tp3860
F0.9141871505371886
ss(g1
S'    XO O '
p3861
tp3862
(dp3863
(I0
I1
tp3864
F0.9730584181026253
sg2776
F0.25991354706039327
s(I2
I0
tp3865
F0.8502843187825131
sg2777
F0.280380437061616
s(I1
I0
tp3866
F0.5615056622798811
s(I0
I2
tp3867
F0.878096430717587
ss(g1
S'OXOO  XOX'
p3868
tp3869
(dp3870
g2800
F0.7178669163603469
sg2801
F0.694248321968818
ss(g1
S' OOXX  OX'
p3871
tp3872
(dp3873
(I1
I2
tp3874
F0.904815081091565
s(I2
I0
tp3875
F0.028552092933275097
s(I0
I0
tp3876
F0.9040853402147325
ss(g323
S'  OXO X O'
p3877
tp3878
(dp3879
g1992
F0.0591689902135083
sg1993
F0.38675267637563515
sg1994
F0.36143657352927194
sg1995
F0.2691891353568121
ss(g1
S' XO   X O'
p3880
tp3881
(dp3882
g1530
F0.8337625965388274
sg1534
F0.4130609594559568
sg1531
F0.2520720730168038
sg1427
F0.3613802393140295
sg1532
F0.5575991706586126
ss(g1
S'O OOX  XX'
p3883
tp3884
(dp3885
(I0
I1
tp3886
F0.011932614068713931
s(I1
I2
tp3887
F0.9336870601122531
s(I2
I0
tp3888
F0.43195423849200987
ss(g1
S'OOX X   O'
p3889
tp3890
(dp3891
g2240
F0.5377424703972175
sg2242
F0.9780206589344298
sg932
F0.3855021001826452
sg933
F0.6738903421668342
ss(g1
S'  O XOXOX'
p3892
tp3893
(dp3894
g3424
F0.020632224895675844
sg3425
F0.46340083431030454
sg3426
F0.9731231443164804
ss(g1
S' O    XO '
p3895
tp3896
(dp3897
(I1
I2
tp3898
F0.2327653589989479
s(I0
I0
tp3899
F0.24648578592900927
sg983
F0.1614133215621565
sg3379
F0.9808251906859553
sg3378
F0.4952357709120485
sg982
F0.5975932242916191
ss(g1
S'    X OO '
p3900
tp3901
(dp3902
(I0
I1
tp3903
F0.7783002381626302
sg1807
F0.185174942650152
sg1808
F0.20159192702858797
s(I2
I2
tp3904
F0.7659590393515329
sg1592
F0.8140222359974785
sg1593
F0.9157226718134113
ss(g1
S'O       X'
p3905
tp3906
(dp3907
g1344
F0.6298742204451723
sg1345
F0.0006920032982313806
s(I2
I1
tp3908
F0.572538557346583
sg1348
F0.697443121999681
sg1346
F0.05945262744508728
s(I1
I0
tp3909
F0.22604246559577845
sg1347
F0.9339202885179271
ss(g1
S'O    X XO'
p3910
tp3911
(dp3912
g3412
F0.42797717422799963
s(I2
I0
tp3913
F0.7532361848865641
s(I1
I0
tp3914
F0.6015038918560618
sg3413
F0.373622142877727
sg3414
F0.5927565449997717
ss(g1
S'   XOO X '
p3915
tp3916
(dp3917
(I0
I1
tp3918
F0.7278887817806814
s(I2
I0
tp3919
F0.6194715651376487
s(I0
I0
tp3920
F0.41291925578461
s(I0
I2
tp3921
F0.551591545666297
s(I2
I2
tp3922
F0.31219245245042293
ss(g1
S' OX   O  '
p3923
tp3924
(dp3925
g72
F0.3939400011620029
s(I0
I0
tp3926
F0.3791894687172048
s(I2
I1
tp3927
F0.5885949754101448
sg75
F0.11729436028610807
sg73
F0.22625828233534295
sg74
F0.17308571673191764
ss(g1
S' XOXO  XO'
p3928
tp3929
(dp3930
(I1
I2
tp3931
F0.7122596492324821
s(I2
I0
tp3932
F0.1539529851597785
s(I0
I0
tp3933
F0.20019417672658368
ss(g1
S'    OXOOX'
p3934
tp3935
(dp3936
g538
F0.014593929430831709
sg542
F0.4805208511891521
sg540
F0.6458004850974571
sg543
F0.9993353215913428
ss(g1
S'X X OOOOX'
p3937
tp3938
(dp3939
g3477
F0.7581633487000694
sg3478
F0.41693808562342327
ss(g1
S'OXOXO XOX'
p3940
tp3941
(dp3942
g2428
F0.7710504600863611
ss(g323
S'X OXX O O'
p3943
tp3944
(dp3945
g1285
F0.3291077696486151
sg1286
F0.2424535024510035
sg1288
F0.4391705735393322
ss(g323
S'  OX OX  '
p3946
tp3947
(dp3948
g2884
F0.33677190097331877
sg2886
F0.3376873991575754
sg2890
F0.7950508046672982
sg2887
F0.7261562412167254
sg2889
F0.9792719395682372
ss(g1
S'OX  XX OO'
p3949
tp3950
(dp3951
g2794
F0.24158618274281796
sg564
F0.690886834137382
sg2796
F0.4086691046618156
ss(g1
S' O     XO'
p3952
tp3953
(dp3954
(I1
I2
tp3955
F0.7518279342415987
sg654
F0.7324236479510668
sg656
F0.9178125311455582
s(I2
I0
tp3956
F0.5857529682768933
sg653
F0.21354222183315008
sg655
F0.5734547501805682
ss(g323
S'X  XOXOO '
p3957
tp3958
(dp3959
(I0
I1
tp3960
F0.3837701002489996
s(I0
I2
tp3961
F0.32379834911228145
s(I2
I2
tp3962
F0.37335554664258686
ss(g1
S'  OXXO O '
p3963
tp3964
(dp3965
g3864
F0.9912150489539896
sg3865
F0.9066087533203652
sg2776
F0.9574080690623011
sg2777
F0.49495423611209877
ss(g1
S' O X OXOX'
p3966
tp3967
(dp3968
(I0
I0
tp3969
F0.27927593492551284
s(I0
I2
tp3970
F0.9048017287433848
sg683
F0.7619121371637446
ss(g1
S' O O OXX '
p3971
tp3972
(dp3973
g2647
F0.3824196629813219
sg2645
F0.9616058438323873
sg1415
F0.015548959890792302
sg1416
F0.10969457188755227
ss(g1
S'OXO XXOO '
p3974
tp3975
(dp3976
g2765
F0.663981049045627
sg2767
F0.29927209917912356
ss(g1
S' XXXOO  O'
p3977
tp3978
(dp3979
g269
F0.17894299692449633
sg267
F0.4801452392457918
sg268
F0.16796824101164165
ss(g1
S'OOX     X'
p3980
tp3981
(dp3982
g3858
F0.345884673876243
s(I2
I0
tp3983
F0.5211038210027875
sg3859
F0.7121623979222196
sg3860
F0.7747718929013507
s(I2
I1
tp3984
F0.8650768277485547
ss(g1
S'O  X   XO'
p3985
tp3986
(dp3987
g638
F0.22385758439782732
s(I1
I2
tp3988
F0.8935993850735638
sg639
F0.3294253801629984
s(I0
I2
tp3989
F0.5940109483623219
sg640
F0.5961792061136792
ss(g1
S'  OX O  X'
p3990
tp3991
(dp3992
g3012
F0.6012965667081713
s(I2
I0
tp3993
F0.2751642157303559
sg3013
F0.21928309029468374
sg3014
F0.06628554785863772
s(I2
I1
tp3994
F0.15037407098295952
ss(g1
S' OOO X XX'
p3995
tp3996
(dp3997
g322
F0.05670025799218681
sg320
F0.36197614645330645
sg321
F0.18521461946312712
ss(g1
S' X XOO OX'
p3998
tp3999
(dp4000
g1131
F0.8677755495330695
sg1129
F0.6367850192322431
sg1134
F0.32646193280965696
ss(g1
S'   XO O  '
p4001
tp4002
(dp4003
(I0
I1
tp4004
F0.778980738098008
sg3258
F0.3151429681865814
sg3259
F0.5615928406162539
sg3261
F0.4178476847550433
s(I2
I2
tp4005
F0.6288347757442716
sg3260
F0.2608689300015543
ss(g1
S'XO  XOO  '
p4006
tp4007
(dp4008
g2558
F0.7056693730124881
sg2559
F0.2964927024342686
sg2555
F0.5482681162595427
sg2557
F0.6482630726861146
ss(g1
S'XX OOX OO'
p4009
tp4010
(dp4011
g3433
F0.9637073213953763
sg3434
F0.6791649212764775
ss(g1
S' X  O  XO'
p4012
tp4013
(dp4014
(I1
I2
tp4015
F0.22497509530833282
s(I2
I0
tp4016
F0.23664643052434153
sg2086
F0.4662126129365646
sg2087
F0.20171279093052696
sg2088
F0.7850753229291908
ss.